
CH32V003_SOUND_V100.elf:     file format elf32-littleriscv
CH32V003_SOUND_V100.elf
architecture: riscv:rv32, flags 0x00000112:
EXEC_P, HAS_SYMS, D_PAGED
start address 0x00000000

Program Header:
    LOAD off    0x00001000 vaddr 0x00000000 paddr 0x00000000 align 2**12
         filesz 0x000000a0 memsz 0x000000a0 flags r-x
    LOAD off    0x00002000 vaddr 0x20000000 paddr 0x000000a0 align 2**12
         filesz 0x0000000c memsz 0x0000000c flags r-x
    LOAD off    0x000020b0 vaddr 0x000000b0 paddr 0x000000b0 align 2**12
         filesz 0x00001bf8 memsz 0x00001bf8 flags r-x
    LOAD off    0x0000400c vaddr 0x2000000c paddr 0x00001ca8 align 2**12
         filesz 0x000000ac memsz 0x00000130 flags rw-
    LOAD off    0x00004700 vaddr 0x20000700 paddr 0x20000700 align 2**12
         filesz 0x00000000 memsz 0x00000100 flags rw-

Sections:
Idx Name          Size      VMA       LMA       File off  Algn
  0 .init         000000a0  00000000  00000000  00001000  2**2
                  CONTENTS, ALLOC, LOAD, READONLY, CODE
  1 .highcodelalign 00000000  000000a0  000000a0  000040b8  2**0
                  CONTENTS
  2 .highcode     0000000c  20000000  000000a0  00002000  2**1
                  CONTENTS, ALLOC, LOAD, READONLY, CODE
  3 .text         00001bf8  000000b0  000000b0  000020b0  2**3
                  CONTENTS, ALLOC, LOAD, READONLY, CODE
  4 .fini         00000000  00001ca8  00001ca8  000040b8  2**0
                  CONTENTS, ALLOC, LOAD, CODE
  5 .dalign       00000000  2000000c  2000000c  000040b8  2**0
                  CONTENTS
  6 .dlalign      00000000  00001ca8  00001ca8  000040b8  2**0
                  CONTENTS
  7 .data         000000ac  2000000c  00001ca8  0000400c  2**2
                  CONTENTS, ALLOC, LOAD, DATA
  8 .bss          00000084  200000b8  00001d54  000040b8  2**2
                  ALLOC
  9 .stack        00000100  20000700  20000700  00004700  2**0
                  ALLOC
 10 .debug_info   0000f581  00000000  00000000  000040b8  2**0
                  CONTENTS, READONLY, DEBUGGING
 11 .debug_abbrev 00002d30  00000000  00000000  00013639  2**0
                  CONTENTS, READONLY, DEBUGGING
 12 .debug_aranges 000008b0  00000000  00000000  00016370  2**3
                  CONTENTS, READONLY, DEBUGGING
 13 .debug_ranges 00000900  00000000  00000000  00016c20  2**3
                  CONTENTS, READONLY, DEBUGGING
 14 .debug_line   0000a183  00000000  00000000  00017520  2**0
                  CONTENTS, READONLY, DEBUGGING
 15 .debug_str    000029b7  00000000  00000000  000216a3  2**0
                  CONTENTS, READONLY, DEBUGGING
 16 .comment      00000033  00000000  00000000  0002405a  2**0
                  CONTENTS, READONLY
 17 .debug_frame  000013e4  00000000  00000000  00024090  2**2
                  CONTENTS, READONLY, DEBUGGING
 18 .debug_loc    000034ce  00000000  00000000  00025474  2**0
                  CONTENTS, READONLY, DEBUGGING
SYMBOL TABLE:
00000000 l    d  .init	00000000 .init
000000a0 l    d  .highcodelalign	00000000 .highcodelalign
20000000 l    d  .highcode	00000000 .highcode
000000b0 l    d  .text	00000000 .text
00001ca8 l    d  .fini	00000000 .fini
2000000c l    d  .dalign	00000000 .dalign
00001ca8 l    d  .dlalign	00000000 .dlalign
2000000c l    d  .data	00000000 .data
200000b8 l    d  .bss	00000000 .bss
20000700 l    d  .stack	00000000 .stack
00000000 l    d  .debug_info	00000000 .debug_info
00000000 l    d  .debug_abbrev	00000000 .debug_abbrev
00000000 l    d  .debug_aranges	00000000 .debug_aranges
00000000 l    d  .debug_ranges	00000000 .debug_ranges
00000000 l    d  .debug_line	00000000 .debug_line
00000000 l    d  .debug_str	00000000 .debug_str
00000000 l    d  .comment	00000000 .comment
00000000 l    d  .debug_frame	00000000 .debug_frame
00000000 l    d  .debug_loc	00000000 .debug_loc
00000000 l    df *ABS*	00000000 core_riscv.c
00000000 l    df *ABS*	00000000 ch32v00x_it.c
00000000 l    df *ABS*	00000000 main.c
200000c0 l     O .bss	00000001 CHARGE_FLAG.4801
200000c8 l     O .bss	00000004 FALSE_RANDOM
200000fc l     O .bss	00000001 SOUND_FLAG.4802
2000000c l     O .data	00000001 Hall_FLAG.4797
00000000 l    df *ABS*	00000000 system_ch32v00x.c
00000000 l    df *ABS*	00000000 ch32v00x_dbgmcu.c
00000000 l    df *ABS*	00000000 ch32v00x_exti.c
00000000 l    df *ABS*	00000000 ch32v00x_gpio.c
00000000 l    df *ABS*	00000000 ch32v00x_misc.c
00000000 l    df *ABS*	00000000 ch32v00x_rcc.c
20000024 l     O .data	00000014 ADCPrescTable
20000038 l     O .data	00000010 APBAHBPrescTable
00000000 l    df *ABS*	00000000 ch32v00x_tim.c
00000000 l    df *ABS*	00000000 ch32v00x_usart.c
00000000 l    df *ABS*	00000000 multi_button.c
20000130 l     O .bss	00000004 head_handle
00000000 l    df *ABS*	00000000 CX588.c
00000ffe l     F .text	0000006e CX588_OneWire_WriteByte
00000000 l    df *ABS*	00000000 Button.c
00000000 l    df *ABS*	00000000 debug.c
20000134 l     O .bss	00000002 p_ms
20000136 l     O .bss	00000001 p_us
20000048 l     O .data	00000004 curbrk.4094
00000000 l    df *ABS*	00000000 wchprintf.c
00000000 l    df *ABS*	00000000 rand.c
00000000 l    df *ABS*	00000000 malloc.c
00000000 l    df *ABS*	00000000 nano-mallocr.c
00000000 l    df *ABS*	00000000 sbrkr.c
00000000 l    df *ABS*	00000000 mlock.c
00000000 l    df *ABS*	00000000 multi3.c
00000000 l    df *ABS*	00000000 impure.c
2000004c l     O .data	00000060 impure_data
00000000 l    df *ABS*	00000000 reent.c
000015c4  w    F .text	00000004 printDouble
000002a4 g     F .text	0000001e BTN1_PRESS_DOWN_Handler
000015c8  w    F .text	00000354 print
0000191c  w    F .text	00000022 printf
200008b0 g       .data	00000000 __global_pointer$
0000077c  w      .text	00000000 TIM1_CC_IRQHandler
00000204 g     F .text	00000010 HardFault_Handler
000014b2  w    F .text	0000010e printInt
00001b62 g     F .text	00000002 __malloc_unlock
0000077c  w      .text	00000000 SysTick_Handler
00000aa0 g     F .text	00000054 NVIC_Init
0000077c  w      .text	00000000 PVD_IRQHandler
00000202 g     F .text	00000002 NMI_Handler
00000d74 g     F .text	00000034 button_init
00000826 g     F .text	0000000a DBGMCU_GetCHIPID
000010fc g     F .text	00000012 CX588_Get_Busy_State
200000f8 g     O .bss	00000004 IDLE_TIME_COUNT
00000d6a g     F .text	0000000a USART_GetFlagStatus
20000138 g     O .bss	00000004 errno
200000b8 g       .bss	00000000 _sbss
00000100 g       *ABS*	00000000 __stack_size
00000332 g     F .text	00000062 Check_Power_Link
000012a8 g     F .text	00000066 USART_Printf_Init
00000830 g     F .text	00000022 EXTI_DeInit
000000ba g     F .text	0000000a .hidden __riscv_restore_2
00000394 g     F .text	0000006c TIM1_INT_Init
000009ba g     F .text	000000c4 GPIO_PinRemapConfig
000015c0  w    F .text	00000004 printLongLongInt
00000c32 g     F .text	00000018 TIM_Cmd
0000193e g     F .text	0000004a puts
20000020 g     O .data	00000004 SystemCoreClock
00001a54 g     F .text	0000000e malloc
000000e4 g     F .text	0000002c .hidden __udivsi3
000000a0 g       .init	00000000 _einit
00000c74 g     F .text	0000000c TIM_ClearITPendingBit
00000ba8 g     F .text	0000001e RCC_APB2PeriphClockCmd
0000092c g     F .text	0000007c GPIO_Init
2000012c g     O .bss	00000004 NVIC_Priority_Group
0000077c  w      .text	00000000 SPI1_IRQHandler
00000d4c g     F .text	00000016 USART_Cmd
00001b36 g     F .text	0000002a _sbrk_r
000000b0 g     F .text	0000000a .hidden __riscv_save_1
000000ba g     F .text	0000000a .hidden __riscv_restore_0
0000077c  w      .text	00000000 AWU_IRQHandler
0000024e g     F .text	00000056 EXTI7_0_IRQHandler
200000cc g     O .bss	0000002c Hall_but2
20000700 g       .stack	00000000 _heap_end
00001234 g     F .text	0000003a Delay_Us
0000077c  w      .text	00000000 DMA1_Channel4_IRQHandler
0000077c  w      .text	00000000 ADC1_IRQHandler
0000135e g     F .text	00000026 _sbrk
0000110e g     F .text	00000090 Switch_GPIO_INIT
000008da g     F .text	0000000a EXTI_ClearITPendingBit
2000013c g       .bss	00000000 _ebss
0000077c  w      .text	00000000 DMA1_Channel7_IRQHandler
00001200 g     F .text	00000034 Delay_Init
000009b2 g     F .text	00000004 GPIO_SetBits
00000110 g     F .text	00000008 .hidden __umodsi3
0000077c  w      .text	00000000 I2C1_EV_IRQHandler
00000c5c g     F .text	00000018 TIM_GetITStatus
00000b06 g     F .text	000000a2 RCC_GetClocksFreq
0000077c  w      .text	00000000 DMA1_Channel6_IRQHandler
00000c80 g     F .text	000000cc USART_Init
0000077c  w      .text	00000000 RCC_IRQHandler
0000077c  w      .text	00000000 TIM1_TRG_COM_IRQHandler
0000077c  w      .text	00000000 DMA1_Channel1_IRQHandler
00000000 g       .init	00000000 _start
20000010 g     O .data	00000010 AHBPrescTable
000010be g     F .text	00000018 CX588_GOIO_DEINIT
000019e2 g     F .text	00000072 rand
000013cc  w    F .text	000000e6 prints
00000c4a g     F .text	00000012 TIM_ITConfig
20000000 g       .highcode	00000000 _highcode_vma_start
00000852 g     F .text	0000006a EXTI_Init
000000c4 g     F .text	00000014 .hidden __mulsi3
20000000 g     F .highcode	0000000a WFE
000009b6 g     F .text	00000004 GPIO_ResetBits
2000000c g       .dalign	00000000 _data_vma
00000a7e g     F .text	00000022 GPIO_EXTILineConfig
00001b60 g     F .text	00000002 __malloc_lock
00000db0 g     F .text	00000020 button_start
000008bc g     F .text	0000001e EXTI_GetITStatus
0000015a g     F .text	000000a8 memset
00000af4 g     F .text	00000012 RCC_AdjustHSICalibrationValue
00000400 g     F .text	00000230 main
00001988 g     F .text	0000005a srand
20000100 g     O .bss	0000002c Vibration_but1
00001a62 g     F .text	000000d4 _malloc_r
0000077c  w      .text	00000000 DMA1_Channel5_IRQHandler
000000dc g     F .text	00000058 .hidden __divsi3
0000126e g     F .text	0000003a Delay_Ms
000000a0 g       .highcodelalign	00000000 _highcode_lma
00000630 g     F .text	000000e0 SystemInit
000008e4 g     F .text	00000048 GPIO_DeInit
00001384  w    F .text	00000048 printchar
00000000 g       .init	00000000 _sinit
0000077c  w      .text	00000000 DMA1_Channel3_IRQHandler
200000b0 g     O .data	00000004 _impure_ptr
00000214 g     F .text	0000003a TIM1_UP_IRQHandler
0000077c  w      .text	00000000 WWDG_IRQHandler
0000077c  w      .text	00000000 TIM2_IRQHandler
20000800 g       .stack	00000000 _eusrstack
000000b0 g     F .text	0000000a .hidden __riscv_save_2
0000077c  w      .text	00000000 SW_Handler
0000077c  w      .text	00000000 TIM1_BRK_IRQHandler
00000d62 g     F .text	00000008 USART_SendData
0000130e g     F .text	00000050 _write
200000b8 g       .data	00000000 _edata
2000013c g       .bss	00000000 _end
2000000c g       .highcode	00000000 _highcode_vma_end
00000da8 g     F .text	00000008 button_attach
00000be4 g     F .text	0000004e TIM_TimeBaseInit
00001ca8 g       .dlalign	00000000 _data_lma
000002c2 g     F .text	00000044 BTN2_SINGLE_CLICK_Handler
00000306 g     F .text	0000002c Read_Button_GPIO
00000710 g     F .text	0000006c SystemCoreClockUpdate
00000134 g     F .text	00000024 .hidden __modsi3
0000077c  w      .text	00000000 DMA1_Channel2_IRQHandler
0000077e  w      .text	00000000 handle_reset
0000077c  w      .text	00000000 FLASH_IRQHandler
000000b0 g     F .text	0000000a .hidden __riscv_save_0
00000dd0 g     F .text	0000001e button_stop
00001b64 g     F .text	0000006a .hidden __muldi3
0000077c  w      .text	00000000 USART1_IRQHandler
200000c4 g     O .bss	00000004 CURRENT_MODE
200000bc g     O .bss	00000004 __malloc_sbrk_start
00000bc6 g     F .text	0000001e RCC_APB2PeriphResetCmd
0000077c  w      .text	00000000 I2C1_ER_IRQHandler
200000b8 g     O .bss	00000004 __malloc_free_list
000000ba g     F .text	0000000a .hidden __riscv_restore_1
000010d6 g     F .text	0000000e CX588_SET_Sound_Size
000009a8 g     F .text	0000000a GPIO_ReadInputDataBit
0000106c g     F .text	00000052 CX588_GOIO_INIT
0000119e g     F .text	00000062 Switch_EXTI_INIT
000010e4 g     F .text	00000018 CX588_Play_Sound
00000dee g     F .text	00000210 button_ticks



Disassembly of section .init:

00000000 <_sinit>:
   0:	77e0006f          	j	77e <handle_reset>
   4:	0000                	unimp
   6:	0000                	unimp
   8:	0202                	c.slli64	tp
   a:	0000                	unimp
   c:	0204                	addi	s1,sp,256
	...
  2e:	0000                	unimp
  30:	077c                	addi	a5,sp,908
  32:	0000                	unimp
  34:	0000                	unimp
  36:	0000                	unimp
  38:	077c                	addi	a5,sp,908
  3a:	0000                	unimp
  3c:	0000                	unimp
  3e:	0000                	unimp
  40:	077c                	addi	a5,sp,908
  42:	0000                	unimp
  44:	077c                	addi	a5,sp,908
  46:	0000                	unimp
  48:	077c                	addi	a5,sp,908
  4a:	0000                	unimp
  4c:	077c                	addi	a5,sp,908
  4e:	0000                	unimp
  50:	024e                	slli	tp,tp,0x13
  52:	0000                	unimp
  54:	077c                	addi	a5,sp,908
  56:	0000                	unimp
  58:	077c                	addi	a5,sp,908
  5a:	0000                	unimp
  5c:	077c                	addi	a5,sp,908
  5e:	0000                	unimp
  60:	077c                	addi	a5,sp,908
  62:	0000                	unimp
  64:	077c                	addi	a5,sp,908
  66:	0000                	unimp
  68:	077c                	addi	a5,sp,908
  6a:	0000                	unimp
  6c:	077c                	addi	a5,sp,908
  6e:	0000                	unimp
  70:	077c                	addi	a5,sp,908
  72:	0000                	unimp
  74:	077c                	addi	a5,sp,908
  76:	0000                	unimp
  78:	077c                	addi	a5,sp,908
  7a:	0000                	unimp
  7c:	077c                	addi	a5,sp,908
  7e:	0000                	unimp
  80:	077c                	addi	a5,sp,908
  82:	0000                	unimp
  84:	077c                	addi	a5,sp,908
  86:	0000                	unimp
  88:	077c                	addi	a5,sp,908
  8a:	0000                	unimp
  8c:	0214                	addi	a3,sp,256
  8e:	0000                	unimp
  90:	077c                	addi	a5,sp,908
  92:	0000                	unimp
  94:	077c                	addi	a5,sp,908
  96:	0000                	unimp
  98:	077c                	addi	a5,sp,908
  9a:	0000                	unimp
  9c:	0000                	unimp
	...

Disassembly of section .highcode:

20000000 <WFE>:
20000000:	10500073          	wfi
20000004:	157d                	addi	a0,a0,-1
20000006:	fd7d                	bnez	a0,20000004 <WFE+0x4>
20000008:	8082                	ret
	...

Disassembly of section .text:

000000b0 <__riscv_save_0>:
      b0:	1151                	addi	sp,sp,-12
      b2:	c026                	sw	s1,0(sp)
      b4:	c222                	sw	s0,4(sp)
      b6:	c406                	sw	ra,8(sp)
      b8:	8282                	jr	t0

000000ba <__riscv_restore_0>:
      ba:	4482                	lw	s1,0(sp)
      bc:	4412                	lw	s0,4(sp)
      be:	40a2                	lw	ra,8(sp)
      c0:	0131                	addi	sp,sp,12
      c2:	8082                	ret

000000c4 <__mulsi3>:
      c4:	862a                	mv	a2,a0
      c6:	4501                	li	a0,0
      c8:	0015f693          	andi	a3,a1,1
      cc:	c291                	beqz	a3,d0 <__mulsi3+0xc>
      ce:	9532                	add	a0,a0,a2
      d0:	8185                	srli	a1,a1,0x1
      d2:	0606                	slli	a2,a2,0x1
      d4:	f9f5                	bnez	a1,c8 <__mulsi3+0x4>
      d6:	8082                	ret
      d8:	0000                	unimp
	...

000000dc <__divsi3>:
      dc:	02054e63          	bltz	a0,118 <__umodsi3+0x8>
      e0:	0405c363          	bltz	a1,126 <__umodsi3+0x16>

000000e4 <__udivsi3>:
      e4:	862e                	mv	a2,a1
      e6:	85aa                	mv	a1,a0
      e8:	557d                	li	a0,-1
      ea:	c215                	beqz	a2,10e <__stack_size+0xe>
      ec:	4685                	li	a3,1
      ee:	00b67863          	bgeu	a2,a1,fe <__udivsi3+0x1a>
      f2:	00c05663          	blez	a2,fe <__udivsi3+0x1a>
      f6:	0606                	slli	a2,a2,0x1
      f8:	0686                	slli	a3,a3,0x1
      fa:	feb66ce3          	bltu	a2,a1,f2 <__udivsi3+0xe>
      fe:	4501                	li	a0,0
     100:	00c5e463          	bltu	a1,a2,108 <__stack_size+0x8>
     104:	8d91                	sub	a1,a1,a2
     106:	8d55                	or	a0,a0,a3
     108:	8285                	srli	a3,a3,0x1
     10a:	8205                	srli	a2,a2,0x1
     10c:	faf5                	bnez	a3,100 <__stack_size>
     10e:	8082                	ret

00000110 <__umodsi3>:
     110:	8286                	mv	t0,ra
     112:	3fc9                	jal	e4 <__udivsi3>
     114:	852e                	mv	a0,a1
     116:	8282                	jr	t0
     118:	40a00533          	neg	a0,a0
     11c:	0005d763          	bgez	a1,12a <__umodsi3+0x1a>
     120:	40b005b3          	neg	a1,a1
     124:	b7c1                	j	e4 <__udivsi3>
     126:	40b005b3          	neg	a1,a1
     12a:	8286                	mv	t0,ra
     12c:	3f65                	jal	e4 <__udivsi3>
     12e:	40a00533          	neg	a0,a0
     132:	8282                	jr	t0

00000134 <__modsi3>:
     134:	8286                	mv	t0,ra
     136:	0005c763          	bltz	a1,144 <__modsi3+0x10>
     13a:	00054963          	bltz	a0,14c <__modsi3+0x18>
     13e:	375d                	jal	e4 <__udivsi3>
     140:	852e                	mv	a0,a1
     142:	8282                	jr	t0
     144:	40b005b3          	neg	a1,a1
     148:	fe055be3          	bgez	a0,13e <__modsi3+0xa>
     14c:	40a00533          	neg	a0,a0
     150:	3f51                	jal	e4 <__udivsi3>
     152:	40b00533          	neg	a0,a1
     156:	8282                	jr	t0
	...

0000015a <memset>:
     15a:	433d                	li	t1,15
     15c:	872a                	mv	a4,a0
     15e:	02c37363          	bgeu	t1,a2,184 <memset+0x2a>
     162:	00f77793          	andi	a5,a4,15
     166:	efbd                	bnez	a5,1e4 <memset+0x8a>
     168:	e5ad                	bnez	a1,1d2 <memset+0x78>
     16a:	ff067693          	andi	a3,a2,-16
     16e:	8a3d                	andi	a2,a2,15
     170:	96ba                	add	a3,a3,a4
     172:	c30c                	sw	a1,0(a4)
     174:	c34c                	sw	a1,4(a4)
     176:	c70c                	sw	a1,8(a4)
     178:	c74c                	sw	a1,12(a4)
     17a:	0741                	addi	a4,a4,16
     17c:	fed76be3          	bltu	a4,a3,172 <memset+0x18>
     180:	e211                	bnez	a2,184 <memset+0x2a>
     182:	8082                	ret
     184:	40c306b3          	sub	a3,t1,a2
     188:	068a                	slli	a3,a3,0x2
     18a:	00000297          	auipc	t0,0x0
     18e:	9696                	add	a3,a3,t0
     190:	00a68067          	jr	10(a3)
     194:	00b70723          	sb	a1,14(a4)
     198:	00b706a3          	sb	a1,13(a4)
     19c:	00b70623          	sb	a1,12(a4)
     1a0:	00b705a3          	sb	a1,11(a4)
     1a4:	00b70523          	sb	a1,10(a4)
     1a8:	00b704a3          	sb	a1,9(a4)
     1ac:	00b70423          	sb	a1,8(a4)
     1b0:	00b703a3          	sb	a1,7(a4)
     1b4:	00b70323          	sb	a1,6(a4)
     1b8:	00b702a3          	sb	a1,5(a4)
     1bc:	00b70223          	sb	a1,4(a4)
     1c0:	00b701a3          	sb	a1,3(a4)
     1c4:	00b70123          	sb	a1,2(a4)
     1c8:	00b700a3          	sb	a1,1(a4)
     1cc:	00b70023          	sb	a1,0(a4)
     1d0:	8082                	ret
     1d2:	0ff5f593          	andi	a1,a1,255
     1d6:	00859693          	slli	a3,a1,0x8
     1da:	8dd5                	or	a1,a1,a3
     1dc:	01059693          	slli	a3,a1,0x10
     1e0:	8dd5                	or	a1,a1,a3
     1e2:	b761                	j	16a <memset+0x10>
     1e4:	00279693          	slli	a3,a5,0x2
     1e8:	00000297          	auipc	t0,0x0
     1ec:	9696                	add	a3,a3,t0
     1ee:	8286                	mv	t0,ra
     1f0:	fa8680e7          	jalr	-88(a3)
     1f4:	8096                	mv	ra,t0
     1f6:	17c1                	addi	a5,a5,-16
     1f8:	8f1d                	sub	a4,a4,a5
     1fa:	963e                	add	a2,a2,a5
     1fc:	f8c374e3          	bgeu	t1,a2,184 <memset+0x2a>
     200:	b7a5                	j	168 <memset+0xe>

00000202 <NMI_Handler>:
     202:	a001                	j	202 <NMI_Handler>

00000204 <HardFault_Handler>:
     204:	beef07b7          	lui	a5,0xbeef0
     208:	e000e737          	lui	a4,0xe000e
     20c:	08078793          	addi	a5,a5,128 # beef0080 <__global_pointer$+0x9eeef7d0>
     210:	c73c                	sw	a5,72(a4)
     212:	a001                	j	212 <HardFault_Handler+0xe>

00000214 <TIM1_UP_IRQHandler>:
     214:	40013537          	lui	a0,0x40013
     218:	4585                	li	a1,1
     21a:	c0050513          	addi	a0,a0,-1024 # 40012c00 <__global_pointer$+0x20012350>
     21e:	23f000ef          	jal	ra,c5c <TIM_GetITStatus>
     222:	4785                	li	a5,1
     224:	00f51c63          	bne	a0,a5,23c <TIM1_UP_IRQHandler+0x28>
     228:	3c7000ef          	jal	ra,dee <button_ticks>
     22c:	8481a783          	lw	a5,-1976(gp) # 200000f8 <IDLE_TIME_COUNT>
     230:	56fd                	li	a3,-1
     232:	00d78563          	beq	a5,a3,23c <TIM1_UP_IRQHandler+0x28>
     236:	0785                	addi	a5,a5,1
     238:	84f1a423          	sw	a5,-1976(gp) # 200000f8 <IDLE_TIME_COUNT>
     23c:	40013537          	lui	a0,0x40013
     240:	4585                	li	a1,1
     242:	c0050513          	addi	a0,a0,-1024 # 40012c00 <__global_pointer$+0x20012350>
     246:	22f000ef          	jal	ra,c74 <TIM_ClearITPendingBit>
     24a:	30200073          	mret

0000024e <EXTI7_0_IRQHandler>:
     24e:	4541                	li	a0,16
     250:	66c000ef          	jal	ra,8bc <EXTI_GetITStatus>
     254:	cd19                	beqz	a0,272 <EXTI7_0_IRQHandler+0x24>
     256:	00002537          	lui	a0,0x2
     25a:	bd050513          	addi	a0,a0,-1072 # 1bd0 <__muldi3+0x6c>
     25e:	6e0010ef          	jal	ra,193e <puts>
     262:	4541                	li	a0,16
     264:	676000ef          	jal	ra,8da <EXTI_ClearITPendingBit>
     268:	4705                	li	a4,1
     26a:	80e1aa23          	sw	a4,-2028(gp) # 200000c4 <CURRENT_MODE>
     26e:	30200073          	mret
     272:	4511                	li	a0,4
     274:	648000ef          	jal	ra,8bc <EXTI_GetITStatus>
     278:	c909                	beqz	a0,28a <EXTI7_0_IRQHandler+0x3c>
     27a:	00002537          	lui	a0,0x2
     27e:	bf050513          	addi	a0,a0,-1040 # 1bf0 <__muldi3+0x8c>
     282:	6bc010ef          	jal	ra,193e <puts>
     286:	4511                	li	a0,4
     288:	bff1                	j	264 <EXTI7_0_IRQHandler+0x16>
     28a:	04000513          	li	a0,64
     28e:	253d                	jal	8bc <EXTI_GetITStatus>
     290:	dd61                	beqz	a0,268 <EXTI7_0_IRQHandler+0x1a>
     292:	00002537          	lui	a0,0x2
     296:	c0c50513          	addi	a0,a0,-1012 # 1c0c <__muldi3+0xa8>
     29a:	6a4010ef          	jal	ra,193e <puts>
     29e:	04000513          	li	a0,64
     2a2:	b7c9                	j	264 <EXTI7_0_IRQHandler+0x16>

000002a4 <BTN1_PRESS_DOWN_Handler>:
     2a4:	e0dff2ef          	jal	t0,b0 <__riscv_save_0>
     2a8:	214c                	lbu	a1,4(a0)
     2aa:	00002537          	lui	a0,0x2
     2ae:	c2850513          	addi	a0,a0,-984 # 1c28 <__muldi3+0xc4>
     2b2:	66a010ef          	jal	ra,191c <printf>
     2b6:	8401a423          	sw	zero,-1976(gp) # 200000f8 <IDLE_TIME_COUNT>
     2ba:	470d                	li	a4,3
     2bc:	80e1aa23          	sw	a4,-2028(gp) # 200000c4 <CURRENT_MODE>
     2c0:	bbed                	j	ba <__riscv_restore_0>

000002c2 <BTN2_SINGLE_CLICK_Handler>:
     2c2:	defff2ef          	jal	t0,b0 <__riscv_save_0>
     2c6:	214c                	lbu	a1,4(a0)
     2c8:	00002537          	lui	a0,0x2
     2cc:	c2850513          	addi	a0,a0,-984 # 1c28 <__muldi3+0xc4>
     2d0:	20000437          	lui	s0,0x20000
     2d4:	648010ef          	jal	ra,191c <printf>
     2d8:	00c44783          	lbu	a5,12(s0) # 2000000c <_highcode_vma_end>
     2dc:	00c40413          	addi	s0,s0,12
     2e0:	cf89                	beqz	a5,2fa <BTN2_SINGLE_CLICK_Handler+0x38>
     2e2:	4531                	li	a0,12
     2e4:	601000ef          	jal	ra,10e4 <CX588_Play_Sound>
     2e8:	5d7000ef          	jal	ra,10be <CX588_GOIO_DEINIT>
     2ec:	201c                	lbu	a5,0(s0)
     2ee:	0017c793          	xori	a5,a5,1
     2f2:	a01c                	sb	a5,0(s0)
     2f4:	8401a423          	sw	zero,-1976(gp) # 200000f8 <IDLE_TIME_COUNT>
     2f8:	b3c9                	j	ba <__riscv_restore_0>
     2fa:	573000ef          	jal	ra,106c <CX588_GOIO_INIT>
     2fe:	452d                	li	a0,11
     300:	5e5000ef          	jal	ra,10e4 <CX588_Play_Sound>
     304:	b7e5                	j	2ec <BTN2_SINGLE_CLICK_Handler+0x2a>

00000306 <Read_Button_GPIO>:
     306:	dabff2ef          	jal	t0,b0 <__riscv_save_0>
     30a:	4785                	li	a5,1
     30c:	00f50763          	beq	a0,a5,31a <Read_Button_GPIO+0x14>
     310:	4789                	li	a5,2
     312:	00f50a63          	beq	a0,a5,326 <Read_Button_GPIO+0x20>
     316:	4501                	li	a0,0
     318:	b34d                	j	ba <__riscv_restore_0>
     31a:	45c1                	li	a1,16
     31c:	40011537          	lui	a0,0x40011
     320:	688000ef          	jal	ra,9a8 <GPIO_ReadInputDataBit>
     324:	bfd5                	j	318 <Read_Button_GPIO+0x12>
     326:	40011537          	lui	a0,0x40011
     32a:	4591                	li	a1,4
     32c:	80050513          	addi	a0,a0,-2048 # 40010800 <__global_pointer$+0x2000ff50>
     330:	bfc5                	j	320 <Read_Button_GPIO+0x1a>

00000332 <Check_Power_Link>:
     332:	d7fff2ef          	jal	t0,b0 <__riscv_save_0>
     336:	40011537          	lui	a0,0x40011
     33a:	04000593          	li	a1,64
     33e:	40050513          	addi	a0,a0,1024 # 40011400 <__global_pointer$+0x20010b50>
     342:	259d                	jal	9a8 <GPIO_ReadInputDataBit>
     344:	4705                	li	a4,1
     346:	81018413          	addi	s0,gp,-2032 # 200000c0 <CHARGE_FLAG.4801>
     34a:	00e50f63          	beq	a0,a4,368 <Check_Power_Link+0x36>
     34e:	4689                	li	a3,2
     350:	80d1aa23          	sw	a3,-2028(gp) # 200000c4 <CURRENT_MODE>
     354:	84c18793          	addi	a5,gp,-1972 # 200000fc <SOUND_FLAG.4802>
     358:	2394                	lbu	a3,0(a5)
     35a:	a018                	sb	a4,0(s0)
     35c:	e689                	bnez	a3,366 <Check_Power_Link+0x34>
     35e:	4525                	li	a0,9
     360:	a398                	sb	a4,0(a5)
     362:	583000ef          	jal	ra,10e4 <CX588_Play_Sound>
     366:	bb91                	j	ba <__riscv_restore_0>
     368:	201c                	lbu	a5,0(s0)
     36a:	dff5                	beqz	a5,366 <Check_Power_Link+0x34>
     36c:	85018513          	addi	a0,gp,-1968 # 20000100 <Vibration_but1>
     370:	241000ef          	jal	ra,db0 <button_start>
     374:	81c18513          	addi	a0,gp,-2020 # 200000cc <Hall_but2>
     378:	239000ef          	jal	ra,db0 <button_start>
     37c:	4529                	li	a0,10
     37e:	84018623          	sb	zero,-1972(gp) # 200000fc <SOUND_FLAG.4802>
     382:	00040023          	sb	zero,0(s0)
     386:	55f000ef          	jal	ra,10e4 <CX588_Play_Sound>
     38a:	8401a423          	sw	zero,-1976(gp) # 200000f8 <IDLE_TIME_COUNT>
     38e:	8001aa23          	sw	zero,-2028(gp) # 200000c4 <CURRENT_MODE>
     392:	bfd1                	j	366 <Check_Power_Link+0x34>

00000394 <TIM1_INT_Init>:
     394:	d1dff2ef          	jal	t0,b0 <__riscv_save_0>
     398:	84aa                	mv	s1,a0
     39a:	6505                	lui	a0,0x1
     39c:	1131                	addi	sp,sp,-20
     39e:	842e                	mv	s0,a1
     3a0:	80050513          	addi	a0,a0,-2048 # 800 <handle_reset+0x82>
     3a4:	4585                	li	a1,1
     3a6:	c002                	sw	zero,0(sp)
     3a8:	c202                	sw	zero,4(sp)
     3aa:	c402                	sw	zero,8(sp)
     3ac:	c602                	sw	zero,12(sp)
     3ae:	00011823          	sh	zero,16(sp)
     3b2:	7f6000ef          	jal	ra,ba8 <RCC_APB2PeriphClockCmd>
     3b6:	8460                	sh	s0,8(sp)
     3b8:	40013437          	lui	s0,0x40013
     3bc:	002c                	addi	a1,sp,8
     3be:	c0040513          	addi	a0,s0,-1024 # 40012c00 <__global_pointer$+0x20012350>
     3c2:	8664                	sh	s1,12(sp)
     3c4:	00011723          	sh	zero,14(sp)
     3c8:	00011523          	sh	zero,10(sp)
     3cc:	00010823          	sb	zero,16(sp)
     3d0:	015000ef          	jal	ra,be4 <TIM_TimeBaseInit>
     3d4:	4585                	li	a1,1
     3d6:	c0040513          	addi	a0,s0,-1024
     3da:	09b000ef          	jal	ra,c74 <TIM_ClearITPendingBit>
     3de:	02300793          	li	a5,35
     3e2:	807c                	sh	a5,0(sp)
     3e4:	4789                	li	a5,2
     3e6:	815c                	sb	a5,2(sp)
     3e8:	850a                	mv	a0,sp
     3ea:	4785                	li	a5,1
     3ec:	c23e                	sw	a5,4(sp)
     3ee:	2d4d                	jal	aa0 <NVIC_Init>
     3f0:	4605                	li	a2,1
     3f2:	4585                	li	a1,1
     3f4:	c0040513          	addi	a0,s0,-1024
     3f8:	053000ef          	jal	ra,c4a <TIM_ITConfig>
     3fc:	0151                	addi	sp,sp,20
     3fe:	b975                	j	ba <__riscv_restore_0>

00000400 <main>:
     400:	cb1ff2ef          	jal	t0,b0 <__riscv_save_0>
     404:	1161                	addi	sp,sp,-8
     406:	2629                	jal	710 <SystemCoreClockUpdate>
     408:	5f9000ef          	jal	ra,1200 <Delay_Init>
     40c:	6571                	lui	a0,0x1c
     40e:	20050513          	addi	a0,a0,512 # 1c200 <_data_lma+0x1a558>
     412:	697000ef          	jal	ra,12a8 <USART_Printf_Init>
     416:	200007b7          	lui	a5,0x20000
     41a:	0207a583          	lw	a1,32(a5) # 20000020 <SystemCoreClock>
     41e:	00002537          	lui	a0,0x2
     422:	c4050513          	addi	a0,a0,-960 # 1c40 <__muldi3+0xdc>
     426:	4f6010ef          	jal	ra,191c <printf>
     42a:	2ef5                	jal	826 <DBGMCU_GetCHIPID>
     42c:	85aa                	mv	a1,a0
     42e:	00002537          	lui	a0,0x2
     432:	c5050513          	addi	a0,a0,-944 # 1c50 <__muldi3+0xec>
     436:	4e6010ef          	jal	ra,191c <printf>
     43a:	4d5000ef          	jal	ra,110e <Switch_GPIO_INIT>
     43e:	000007b7          	lui	a5,0x0
     442:	30678593          	addi	a1,a5,774 # 306 <Read_Button_GPIO>
     446:	4685                	li	a3,1
     448:	85018513          	addi	a0,gp,-1968 # 20000100 <Vibration_but1>
     44c:	4601                	li	a2,0
     44e:	127000ef          	jal	ra,d74 <button_init>
     452:	00000637          	lui	a2,0x0
     456:	2a460613          	addi	a2,a2,676 # 2a4 <BTN1_PRESS_DOWN_Handler>
     45a:	4581                	li	a1,0
     45c:	85018513          	addi	a0,gp,-1968 # 20000100 <Vibration_but1>
     460:	149000ef          	jal	ra,da8 <button_attach>
     464:	85018513          	addi	a0,gp,-1968 # 20000100 <Vibration_but1>
     468:	149000ef          	jal	ra,db0 <button_start>
     46c:	000007b7          	lui	a5,0x0
     470:	30678593          	addi	a1,a5,774 # 306 <Read_Button_GPIO>
     474:	4689                	li	a3,2
     476:	81c18513          	addi	a0,gp,-2020 # 200000cc <Hall_but2>
     47a:	4601                	li	a2,0
     47c:	0f9000ef          	jal	ra,d74 <button_init>
     480:	00000637          	lui	a2,0x0
     484:	2c260613          	addi	a2,a2,706 # 2c2 <BTN2_SINGLE_CLICK_Handler>
     488:	458d                	li	a1,3
     48a:	81c18513          	addi	a0,gp,-2020 # 200000cc <Hall_but2>
     48e:	11b000ef          	jal	ra,da8 <button_attach>
     492:	81c18513          	addi	a0,gp,-2020 # 200000cc <Hall_but2>
     496:	11b000ef          	jal	ra,db0 <button_start>
     49a:	65b1                	lui	a1,0xc
     49c:	b7f58593          	addi	a1,a1,-1153 # bb7f <_data_lma+0x9ed7>
     4a0:	4525                	li	a0,9
     4a2:	3dcd                	jal	394 <TIM1_INT_Init>
     4a4:	40013537          	lui	a0,0x40013
     4a8:	4585                	li	a1,1
     4aa:	c0050513          	addi	a0,a0,-1024 # 40012c00 <__global_pointer$+0x20012350>
     4ae:	784000ef          	jal	ra,c32 <TIM_Cmd>
     4b2:	3bb000ef          	jal	ra,106c <CX588_GOIO_INIT>
     4b6:	4551                	li	a0,20
     4b8:	5b7000ef          	jal	ra,126e <Delay_Ms>
     4bc:	0ef00513          	li	a0,239
     4c0:	417000ef          	jal	ra,10d6 <CX588_SET_Sound_Size>
     4c4:	8181a503          	lw	a0,-2024(gp) # 200000c8 <FALSE_RANDOM>
     4c8:	4c0010ef          	jal	ra,1988 <srand>
     4cc:	c022                	sw	s0,0(sp)
     4ce:	c226                	sw	s1,4(sp)
     4d0:	81818413          	addi	s0,gp,-2024 # 200000c8 <FALSE_RANDOM>
     4d4:	3db9                	jal	332 <Check_Power_Link>
     4d6:	81418713          	addi	a4,gp,-2028 # 200000c4 <CURRENT_MODE>
     4da:	431c                	lw	a5,0(a4)
     4dc:	4685                	li	a3,1
     4de:	10d78e63          	beq	a5,a3,5fa <main+0x1fa>
     4e2:	cbb5                	beqz	a5,556 <main+0x156>
     4e4:	4709                	li	a4,2
     4e6:	12e78863          	beq	a5,a4,616 <main+0x216>
     4ea:	470d                	li	a4,3
     4ec:	fee794e3          	bne	a5,a4,4d4 <main+0xd4>
     4f0:	40d000ef          	jal	ra,10fc <CX588_Get_Busy_State>
     4f4:	c521                	beqz	a0,53c <main+0x13c>
     4f6:	4ec010ef          	jal	ra,19e2 <rand>
     4fa:	800007b7          	lui	a5,0x80000
     4fe:	079d                	addi	a5,a5,7
     500:	8d7d                	and	a0,a0,a5
     502:	00055663          	bgez	a0,50e <main+0x10e>
     506:	157d                	addi	a0,a0,-1
     508:	ff856513          	ori	a0,a0,-8
     50c:	0505                	addi	a0,a0,1
     50e:	0505                	addi	a0,a0,1
     510:	0ff57513          	andi	a0,a0,255
     514:	3d1000ef          	jal	ra,10e4 <CX588_Play_Sound>
     518:	4ca010ef          	jal	ra,19e2 <rand>
     51c:	800005b7          	lui	a1,0x80000
     520:	059d                	addi	a1,a1,7
     522:	8de9                	and	a1,a1,a0
     524:	0005d663          	bgez	a1,530 <main+0x130>
     528:	15fd                	addi	a1,a1,-1
     52a:	ff85e593          	ori	a1,a1,-8
     52e:	0585                	addi	a1,a1,1
     530:	00002537          	lui	a0,0x2
     534:	c7050513          	addi	a0,a0,-912 # 1c70 <__muldi3+0x10c>
     538:	3e4010ef          	jal	ra,191c <printf>
     53c:	84818793          	addi	a5,gp,-1976 # 200000f8 <IDLE_TIME_COUNT>
     540:	4394                	lw	a3,0(a5)
     542:	4018                	lw	a4,0(s0)
     544:	0007a023          	sw	zero,0(a5) # 80000000 <__global_pointer$+0x5ffff750>
     548:	9736                	add	a4,a4,a3
     54a:	81418793          	addi	a5,gp,-2028 # 200000c4 <CURRENT_MODE>
     54e:	c018                	sw	a4,0(s0)
     550:	0007a023          	sw	zero,0(a5)
     554:	b741                	j	4d4 <main+0xd4>
     556:	8481a703          	lw	a4,-1976(gp) # 200000f8 <IDLE_TIME_COUNT>
     55a:	1f400793          	li	a5,500
     55e:	f6f71be3          	bne	a4,a5,4d4 <main+0xd4>
     562:	39b000ef          	jal	ra,10fc <CX588_Get_Busy_State>
     566:	d53d                	beqz	a0,4d4 <main+0xd4>
     568:	40013537          	lui	a0,0x40013
     56c:	4581                	li	a1,0
     56e:	c0050513          	addi	a0,a0,-1024 # 40012c00 <__global_pointer$+0x20012350>
     572:	25c1                	jal	c32 <TIM_Cmd>
     574:	4505                	li	a0,1
     576:	429000ef          	jal	ra,119e <Switch_EXTI_INIT>
     57a:	00002537          	lui	a0,0x2
     57e:	c6050513          	addi	a0,a0,-928 # 1c60 <__muldi3+0xfc>
     582:	3bc010ef          	jal	ra,193e <puts>
     586:	e000f7b7          	lui	a5,0xe000f
     58a:	d107a703          	lw	a4,-752(a5) # e000ed10 <__global_pointer$+0xc000e460>
     58e:	08800693          	li	a3,136
     592:	01076713          	ori	a4,a4,16
     596:	d0e7a823          	sw	a4,-752(a5)
     59a:	3006b073          	csrc	mstatus,a3
     59e:	d107a603          	lw	a2,-752(a5)
     5a2:	d107a703          	lw	a4,-752(a5)
     5a6:	454d                	li	a0,19
     5a8:	02067613          	andi	a2,a2,32
     5ac:	02876713          	ori	a4,a4,40
     5b0:	d0e7a823          	sw	a4,-752(a5)
     5b4:	d107a703          	lw	a4,-752(a5)
     5b8:	fdf77713          	andi	a4,a4,-33
     5bc:	8f51                	or	a4,a4,a2
     5be:	d0e7a823          	sw	a4,-752(a5)
     5c2:	d107a703          	lw	a4,-752(a5)
     5c6:	00876713          	ori	a4,a4,8
     5ca:	d0e7a823          	sw	a4,-752(a5)
     5ce:	20000097          	auipc	ra,0x20000
     5d2:	a32080e7          	jalr	-1486(ra) # 20000000 <WFE>
     5d6:	e000f7b7          	lui	a5,0xe000f
     5da:	d107a703          	lw	a4,-752(a5) # e000ed10 <__global_pointer$+0xc000e460>
     5de:	454d                	li	a0,19
     5e0:	00876713          	ori	a4,a4,8
     5e4:	d0e7a823          	sw	a4,-752(a5)
     5e8:	20000097          	auipc	ra,0x20000
     5ec:	a18080e7          	jalr	-1512(ra) # 20000000 <WFE>
     5f0:	08800693          	li	a3,136
     5f4:	3006a073          	csrs	mstatus,a3
     5f8:	bdf1                	j	4d4 <main+0xd4>
     5fa:	40013537          	lui	a0,0x40013
     5fe:	4585                	li	a1,1
     600:	c0050513          	addi	a0,a0,-1024 # 40012c00 <__global_pointer$+0x20012350>
     604:	8401a423          	sw	zero,-1976(gp) # 200000f8 <IDLE_TIME_COUNT>
     608:	252d                	jal	c32 <TIM_Cmd>
     60a:	241d                	jal	830 <EXTI_DeInit>
     60c:	478d                	li	a5,3
     60e:	81418713          	addi	a4,gp,-2028 # 200000c4 <CURRENT_MODE>
     612:	c31c                	sw	a5,0(a4)
     614:	b5c1                	j	4d4 <main+0xd4>
     616:	4782                	lw	a5,0(sp)
     618:	85018513          	addi	a0,gp,-1968 # 20000100 <Vibration_but1>
     61c:	7b4000ef          	jal	ra,dd0 <button_stop>
     620:	4792                	lw	a5,4(sp)
     622:	81c18513          	addi	a0,gp,-2020 # 200000cc <Hall_but2>
     626:	7aa000ef          	jal	ra,dd0 <button_stop>
     62a:	8401a423          	sw	zero,-1976(gp) # 200000f8 <IDLE_TIME_COUNT>
     62e:	b55d                	j	4d4 <main+0xd4>

00000630 <SystemInit>:
     630:	a81ff2ef          	jal	t0,b0 <__riscv_save_0>
     634:	40021437          	lui	s0,0x40021
     638:	401c                	lw	a5,0(s0)
     63a:	f8ff0737          	lui	a4,0xf8ff0
     63e:	4541                	li	a0,16
     640:	0017e793          	ori	a5,a5,1
     644:	c01c                	sw	a5,0(s0)
     646:	405c                	lw	a5,4(s0)
     648:	8ff9                	and	a5,a5,a4
     64a:	c05c                	sw	a5,4(s0)
     64c:	401c                	lw	a5,0(s0)
     64e:	fef70737          	lui	a4,0xfef70
     652:	177d                	addi	a4,a4,-1
     654:	8ff9                	and	a5,a5,a4
     656:	c01c                	sw	a5,0(s0)
     658:	401c                	lw	a5,0(s0)
     65a:	fffc0737          	lui	a4,0xfffc0
     65e:	177d                	addi	a4,a4,-1
     660:	8ff9                	and	a5,a5,a4
     662:	c01c                	sw	a5,0(s0)
     664:	405c                	lw	a5,4(s0)
     666:	7741                	lui	a4,0xffff0
     668:	177d                	addi	a4,a4,-1
     66a:	8ff9                	and	a5,a5,a4
     66c:	c05c                	sw	a5,4(s0)
     66e:	009f07b7          	lui	a5,0x9f0
     672:	c41c                	sw	a5,8(s0)
     674:	2141                	jal	af4 <RCC_AdjustHSICalibrationValue>
     676:	4c1c                	lw	a5,24(s0)
     678:	0207e793          	ori	a5,a5,32
     67c:	cc1c                	sw	a5,24(s0)
     67e:	400117b7          	lui	a5,0x40011
     682:	4007a703          	lw	a4,1024(a5) # 40011400 <__global_pointer$+0x20010b50>
     686:	40078693          	addi	a3,a5,1024
     68a:	f0f77713          	andi	a4,a4,-241
     68e:	40e7a023          	sw	a4,1024(a5)
     692:	4007a703          	lw	a4,1024(a5)
     696:	08076713          	ori	a4,a4,128
     69a:	40e7a023          	sw	a4,1024(a5)
     69e:	4789                	li	a5,2
     6a0:	ca9c                	sw	a5,16(a3)
     6a2:	1ffff7b7          	lui	a5,0x1ffff
     6a6:	7d47c503          	lbu	a0,2004(a5) # 1ffff7d4 <_data_lma+0x1fffdb2c>
     6aa:	0ff00793          	li	a5,255
     6ae:	00f50463          	beq	a0,a5,6b6 <SystemInit+0x86>
     6b2:	897d                	andi	a0,a0,31
     6b4:	2181                	jal	af4 <RCC_AdjustHSICalibrationValue>
     6b6:	400227b7          	lui	a5,0x40022
     6ba:	4398                	lw	a4,0(a5)
     6bc:	76c1                	lui	a3,0xffff0
     6be:	16fd                	addi	a3,a3,-1
     6c0:	9b71                	andi	a4,a4,-4
     6c2:	c398                	sw	a4,0(a5)
     6c4:	4398                	lw	a4,0(a5)
     6c6:	00176713          	ori	a4,a4,1
     6ca:	c398                	sw	a4,0(a5)
     6cc:	400217b7          	lui	a5,0x40021
     6d0:	43d8                	lw	a4,4(a5)
     6d2:	c3d8                	sw	a4,4(a5)
     6d4:	43d8                	lw	a4,4(a5)
     6d6:	8f75                	and	a4,a4,a3
     6d8:	c3d8                	sw	a4,4(a5)
     6da:	43d8                	lw	a4,4(a5)
     6dc:	010006b7          	lui	a3,0x1000
     6e0:	c3d8                	sw	a4,4(a5)
     6e2:	4398                	lw	a4,0(a5)
     6e4:	8f55                	or	a4,a4,a3
     6e6:	c398                	sw	a4,0(a5)
     6e8:	4398                	lw	a4,0(a5)
     6ea:	00671693          	slli	a3,a4,0x6
     6ee:	fe06dde3          	bgez	a3,6e8 <SystemInit+0xb8>
     6f2:	43d8                	lw	a4,4(a5)
     6f4:	400216b7          	lui	a3,0x40021
     6f8:	9b71                	andi	a4,a4,-4
     6fa:	c3d8                	sw	a4,4(a5)
     6fc:	43d8                	lw	a4,4(a5)
     6fe:	00276713          	ori	a4,a4,2
     702:	c3d8                	sw	a4,4(a5)
     704:	4721                	li	a4,8
     706:	42dc                	lw	a5,4(a3)
     708:	8bb1                	andi	a5,a5,12
     70a:	fee79ee3          	bne	a5,a4,706 <SystemInit+0xd6>
     70e:	b275                	j	ba <__riscv_restore_0>

00000710 <SystemCoreClockUpdate>:
     710:	9a1ff2ef          	jal	t0,b0 <__riscv_save_0>
     714:	40021737          	lui	a4,0x40021
     718:	435c                	lw	a5,4(a4)
     71a:	20000437          	lui	s0,0x20000
     71e:	4691                	li	a3,4
     720:	8bb1                	andi	a5,a5,12
     722:	02040413          	addi	s0,s0,32 # 20000020 <SystemCoreClock>
     726:	00d78563          	beq	a5,a3,730 <SystemCoreClockUpdate+0x20>
     72a:	46a1                	li	a3,8
     72c:	04d78263          	beq	a5,a3,770 <SystemCoreClockUpdate+0x60>
     730:	016e37b7          	lui	a5,0x16e3
     734:	60078793          	addi	a5,a5,1536 # 16e3600 <_data_lma+0x16e1958>
     738:	c01c                	sw	a5,0(s0)
     73a:	400216b7          	lui	a3,0x40021
     73e:	42dc                	lw	a5,4(a3)
     740:	4008                	lw	a0,0(s0)
     742:	8391                	srli	a5,a5,0x4
     744:	00f7f713          	andi	a4,a5,15
     748:	200007b7          	lui	a5,0x20000
     74c:	01078793          	addi	a5,a5,16 # 20000010 <AHBPrescTable>
     750:	97ba                	add	a5,a5,a4
     752:	238c                	lbu	a1,0(a5)
     754:	42dc                	lw	a5,4(a3)
     756:	0ff5f593          	andi	a1,a1,255
     75a:	0807f793          	andi	a5,a5,128
     75e:	00b55733          	srl	a4,a0,a1
     762:	e781                	bnez	a5,76a <SystemCoreClockUpdate+0x5a>
     764:	981ff0ef          	jal	ra,e4 <__udivsi3>
     768:	872a                	mv	a4,a0
     76a:	c018                	sw	a4,0(s0)
     76c:	94fff06f          	j	ba <__riscv_restore_0>
     770:	435c                	lw	a5,4(a4)
     772:	02dc77b7          	lui	a5,0x2dc7
     776:	c0078793          	addi	a5,a5,-1024 # 2dc6c00 <_data_lma+0x2dc4f58>
     77a:	bf7d                	j	738 <SystemCoreClockUpdate+0x28>

0000077c <ADC1_IRQHandler>:
     77c:	a001                	j	77c <ADC1_IRQHandler>

0000077e <handle_reset>:
     77e:	20000197          	auipc	gp,0x20000
     782:	13218193          	addi	gp,gp,306 # 200008b0 <__global_pointer$>
     786:	f5018113          	addi	sp,gp,-176 # 20000800 <_eusrstack>
     78a:	0a000513          	li	a0,160
     78e:	20000597          	auipc	a1,0x20000
     792:	87258593          	addi	a1,a1,-1934 # 20000000 <WFE>
     796:	20000617          	auipc	a2,0x20000
     79a:	87660613          	addi	a2,a2,-1930 # 2000000c <_highcode_vma_end>
     79e:	00c5fa63          	bgeu	a1,a2,7b2 <handle_reset+0x34>
     7a2:	00052283          	lw	t0,0(a0)
     7a6:	0055a023          	sw	t0,0(a1)
     7aa:	0511                	addi	a0,a0,4
     7ac:	0591                	addi	a1,a1,4
     7ae:	fec5eae3          	bltu	a1,a2,7a2 <handle_reset+0x24>
     7b2:	00001517          	auipc	a0,0x1
     7b6:	4f650513          	addi	a0,a0,1270 # 1ca8 <_data_lma>
     7ba:	20000597          	auipc	a1,0x20000
     7be:	85258593          	addi	a1,a1,-1966 # 2000000c <_highcode_vma_end>
     7c2:	80818613          	addi	a2,gp,-2040 # 200000b8 <_edata>
     7c6:	00c5fa63          	bgeu	a1,a2,7da <handle_reset+0x5c>
     7ca:	00052283          	lw	t0,0(a0)
     7ce:	0055a023          	sw	t0,0(a1)
     7d2:	0511                	addi	a0,a0,4
     7d4:	0591                	addi	a1,a1,4
     7d6:	fec5eae3          	bltu	a1,a2,7ca <handle_reset+0x4c>
     7da:	80818513          	addi	a0,gp,-2040 # 200000b8 <_edata>
     7de:	88c18593          	addi	a1,gp,-1908 # 2000013c <_ebss>
     7e2:	00b57763          	bgeu	a0,a1,7f0 <handle_reset+0x72>
     7e6:	00052023          	sw	zero,0(a0)
     7ea:	0511                	addi	a0,a0,4
     7ec:	feb56de3          	bltu	a0,a1,7e6 <handle_reset+0x68>
     7f0:	000022b7          	lui	t0,0x2
     7f4:	88028293          	addi	t0,t0,-1920 # 1880 <print+0x2b8>
     7f8:	30029073          	csrw	mstatus,t0
     7fc:	428d                	li	t0,3
     7fe:	80429073          	csrw	0x804,t0
     802:	fffff297          	auipc	t0,0xfffff
     806:	7fe28293          	addi	t0,t0,2046 # 0 <_sinit>
     80a:	0032e293          	ori	t0,t0,3
     80e:	30529073          	csrw	mtvec,t0
     812:	e1fff0ef          	jal	ra,630 <SystemInit>
     816:	00000297          	auipc	t0,0x0
     81a:	bea28293          	addi	t0,t0,-1046 # 400 <main>
     81e:	34129073          	csrw	mepc,t0
     822:	30200073          	mret

00000826 <DBGMCU_GetCHIPID>:
     826:	1ffff7b7          	lui	a5,0x1ffff
     82a:	7c47a503          	lw	a0,1988(a5) # 1ffff7c4 <_data_lma+0x1fffdb1c>
     82e:	8082                	ret

00000830 <EXTI_DeInit>:
     830:	40010737          	lui	a4,0x40010
     834:	40072023          	sw	zero,1024(a4) # 40010400 <__global_pointer$+0x2000fb50>
     838:	40072223          	sw	zero,1028(a4)
     83c:	40072423          	sw	zero,1032(a4)
     840:	40070793          	addi	a5,a4,1024
     844:	40072623          	sw	zero,1036(a4)
     848:	00100737          	lui	a4,0x100
     84c:	177d                	addi	a4,a4,-1
     84e:	cbd8                	sw	a4,20(a5)
     850:	8082                	ret

00000852 <EXTI_Init>:
     852:	4158                	lw	a4,4(a0)
     854:	00052303          	lw	t1,0(a0)
     858:	454c                	lw	a1,12(a0)
     85a:	40010637          	lui	a2,0x40010
     85e:	40060793          	addi	a5,a2,1024 # 40010400 <__global_pointer$+0x2000fb50>
     862:	973e                	add	a4,a4,a5
     864:	fff34693          	not	a3,t1
     868:	c5b1                	beqz	a1,8b4 <EXTI_Init+0x62>
     86a:	40062583          	lw	a1,1024(a2)
     86e:	8df5                	and	a1,a1,a3
     870:	40b62023          	sw	a1,1024(a2)
     874:	43d0                	lw	a2,4(a5)
     876:	8ef1                	and	a3,a3,a2
     878:	c3d4                	sw	a3,4(a5)
     87a:	4314                	lw	a3,0(a4)
     87c:	0066e6b3          	or	a3,a3,t1
     880:	c314                	sw	a3,0(a4)
     882:	4118                	lw	a4,0(a0)
     884:	4790                	lw	a2,8(a5)
     886:	fff74693          	not	a3,a4
     88a:	8e75                	and	a2,a2,a3
     88c:	c790                	sw	a2,8(a5)
     88e:	47d0                	lw	a2,12(a5)
     890:	8ef1                	and	a3,a3,a2
     892:	c7d4                	sw	a3,12(a5)
     894:	4514                	lw	a3,8(a0)
     896:	4641                	li	a2,16
     898:	00c69963          	bne	a3,a2,8aa <EXTI_Init+0x58>
     89c:	4794                	lw	a3,8(a5)
     89e:	8ed9                	or	a3,a3,a4
     8a0:	c794                	sw	a3,8(a5)
     8a2:	47d4                	lw	a3,12(a5)
     8a4:	8f55                	or	a4,a4,a3
     8a6:	c7d8                	sw	a4,12(a5)
     8a8:	8082                	ret
     8aa:	97b6                	add	a5,a5,a3
     8ac:	4394                	lw	a3,0(a5)
     8ae:	8f55                	or	a4,a4,a3
     8b0:	c398                	sw	a4,0(a5)
     8b2:	8082                	ret
     8b4:	431c                	lw	a5,0(a4)
     8b6:	8ff5                	and	a5,a5,a3
     8b8:	c31c                	sw	a5,0(a4)
     8ba:	8082                	ret

000008bc <EXTI_GetITStatus>:
     8bc:	400107b7          	lui	a5,0x40010
     8c0:	40078713          	addi	a4,a5,1024 # 40010400 <__global_pointer$+0x2000fb50>
     8c4:	4007a783          	lw	a5,1024(a5)
     8c8:	4b58                	lw	a4,20(a4)
     8ca:	8f69                	and	a4,a4,a0
     8cc:	c709                	beqz	a4,8d6 <EXTI_GetITStatus+0x1a>
     8ce:	8d7d                	and	a0,a0,a5
     8d0:	00a03533          	snez	a0,a0
     8d4:	8082                	ret
     8d6:	4501                	li	a0,0
     8d8:	8082                	ret

000008da <EXTI_ClearITPendingBit>:
     8da:	400107b7          	lui	a5,0x40010
     8de:	40a7aa23          	sw	a0,1044(a5) # 40010414 <__global_pointer$+0x2000fb64>
     8e2:	8082                	ret

000008e4 <GPIO_DeInit>:
     8e4:	fccff2ef          	jal	t0,b0 <__riscv_save_0>
     8e8:	400117b7          	lui	a5,0x40011
     8ec:	80078713          	addi	a4,a5,-2048 # 40010800 <__global_pointer$+0x2000ff50>
     8f0:	00e51a63          	bne	a0,a4,904 <GPIO_DeInit+0x20>
     8f4:	4585                	li	a1,1
     8f6:	4511                	li	a0,4
     8f8:	24f9                	jal	bc6 <RCC_APB2PeriphResetCmd>
     8fa:	4581                	li	a1,0
     8fc:	4511                	li	a0,4
     8fe:	24e1                	jal	bc6 <RCC_APB2PeriphResetCmd>
     900:	fbaff06f          	j	ba <__riscv_restore_0>
     904:	00f51863          	bne	a0,a5,914 <GPIO_DeInit+0x30>
     908:	4585                	li	a1,1
     90a:	4541                	li	a0,16
     90c:	2c6d                	jal	bc6 <RCC_APB2PeriphResetCmd>
     90e:	4581                	li	a1,0
     910:	4541                	li	a0,16
     912:	b7f5                	j	8fe <GPIO_DeInit+0x1a>
     914:	40078793          	addi	a5,a5,1024
     918:	fef514e3          	bne	a0,a5,900 <GPIO_DeInit+0x1c>
     91c:	4585                	li	a1,1
     91e:	02000513          	li	a0,32
     922:	2455                	jal	bc6 <RCC_APB2PeriphResetCmd>
     924:	4581                	li	a1,0
     926:	02000513          	li	a0,32
     92a:	bfd1                	j	8fe <GPIO_DeInit+0x1a>

0000092c <GPIO_Init>:
     92c:	4594                	lw	a3,8(a1)
     92e:	0106f793          	andi	a5,a3,16
     932:	00f6f293          	andi	t0,a3,15
     936:	c781                	beqz	a5,93e <GPIO_Init+0x12>
     938:	41dc                	lw	a5,4(a1)
     93a:	00f2e2b3          	or	t0,t0,a5
     93e:	0005d383          	lhu	t2,0(a1)
     942:	0ff3f793          	andi	a5,t2,255
     946:	c3a5                	beqz	a5,9a6 <GPIO_Init+0x7a>
     948:	00052303          	lw	t1,0(a0)
     94c:	1161                	addi	sp,sp,-8
     94e:	c222                	sw	s0,4(sp)
     950:	c026                	sw	s1,0(sp)
     952:	4781                	li	a5,0
     954:	02800413          	li	s0,40
     958:	04800493          	li	s1,72
     95c:	4705                	li	a4,1
     95e:	00f71633          	sll	a2,a4,a5
     962:	00c3f733          	and	a4,t2,a2
     966:	02e61263          	bne	a2,a4,98a <GPIO_Init+0x5e>
     96a:	00279593          	slli	a1,a5,0x2
     96e:	473d                	li	a4,15
     970:	00b71733          	sll	a4,a4,a1
     974:	fff74713          	not	a4,a4
     978:	00677333          	and	t1,a4,t1
     97c:	00b295b3          	sll	a1,t0,a1
     980:	0065e333          	or	t1,a1,t1
     984:	00869d63          	bne	a3,s0,99e <GPIO_Init+0x72>
     988:	c950                	sw	a2,20(a0)
     98a:	0785                	addi	a5,a5,1
     98c:	4721                	li	a4,8
     98e:	fce797e3          	bne	a5,a4,95c <GPIO_Init+0x30>
     992:	4412                	lw	s0,4(sp)
     994:	00652023          	sw	t1,0(a0)
     998:	4482                	lw	s1,0(sp)
     99a:	0121                	addi	sp,sp,8
     99c:	8082                	ret
     99e:	fe9696e3          	bne	a3,s1,98a <GPIO_Init+0x5e>
     9a2:	c910                	sw	a2,16(a0)
     9a4:	b7dd                	j	98a <GPIO_Init+0x5e>
     9a6:	8082                	ret

000009a8 <GPIO_ReadInputDataBit>:
     9a8:	4508                	lw	a0,8(a0)
     9aa:	8d6d                	and	a0,a0,a1
     9ac:	00a03533          	snez	a0,a0
     9b0:	8082                	ret

000009b2 <GPIO_SetBits>:
     9b2:	c90c                	sw	a1,16(a0)
     9b4:	8082                	ret

000009b6 <GPIO_ResetBits>:
     9b6:	c94c                	sw	a1,20(a0)
     9b8:	8082                	ret

000009ba <GPIO_PinRemapConfig>:
     9ba:	40010337          	lui	t1,0x40010
     9be:	00432703          	lw	a4,4(t1) # 40010004 <__global_pointer$+0x2000f754>
     9c2:	00351793          	slli	a5,a0,0x3
     9c6:	0207d063          	bgez	a5,9e6 <GPIO_PinRemapConfig+0x2c>
     9ca:	ffc007b7          	lui	a5,0xffc00
     9ce:	17f5                	addi	a5,a5,-3
     9d0:	8ff9                	and	a5,a5,a4
     9d2:	07000737          	lui	a4,0x7000
     9d6:	8fd9                	or	a5,a5,a4
     9d8:	cdd9                	beqz	a1,a76 <GPIO_PinRemapConfig+0xbc>
     9da:	f0000737          	lui	a4,0xf0000
     9de:	177d                	addi	a4,a4,-1
     9e0:	8d79                	and	a0,a0,a4
     9e2:	8fc9                	or	a5,a5,a0
     9e4:	a849                	j	a76 <GPIO_PinRemapConfig+0xbc>
     9e6:	00055d63          	bgez	a0,a00 <GPIO_PinRemapConfig+0x46>
     9ea:	ffe007b7          	lui	a5,0xffe00
     9ee:	17ed                	addi	a5,a5,-5
     9f0:	8ff9                	and	a5,a5,a4
     9f2:	07000737          	lui	a4,0x7000
     9f6:	8fd9                	or	a5,a5,a4
     9f8:	cdbd                	beqz	a1,a76 <GPIO_PinRemapConfig+0xbc>
     9fa:	0506                	slli	a0,a0,0x1
     9fc:	8105                	srli	a0,a0,0x1
     9fe:	b7d5                	j	9e2 <GPIO_PinRemapConfig+0x28>
     a00:	003007b7          	lui	a5,0x300
     a04:	01051693          	slli	a3,a0,0x10
     a08:	00f57633          	and	a2,a0,a5
     a0c:	82c1                	srli	a3,a3,0x10
     a0e:	02f61363          	bne	a2,a5,a34 <GPIO_PinRemapConfig+0x7a>
     a12:	f9000637          	lui	a2,0xf9000
     a16:	167d                	addi	a2,a2,-1
     a18:	00c777b3          	and	a5,a4,a2
     a1c:	00432703          	lw	a4,4(t1)
     a20:	8e79                	and	a2,a2,a4
     a22:	00c32223          	sw	a2,4(t1)
     a26:	c9a1                	beqz	a1,a76 <GPIO_PinRemapConfig+0xbc>
     a28:	8155                	srli	a0,a0,0x15
     a2a:	00451713          	slli	a4,a0,0x4
     a2e:	00e69533          	sll	a0,a3,a4
     a32:	bf45                	j	9e2 <GPIO_PinRemapConfig+0x28>
     a34:	00b51793          	slli	a5,a0,0xb
     a38:	0207d463          	bgez	a5,a60 <GPIO_PinRemapConfig+0xa6>
     a3c:	01055793          	srli	a5,a0,0x10
     a40:	00f7f613          	andi	a2,a5,15
     a44:	478d                	li	a5,3
     a46:	00c797b3          	sll	a5,a5,a2
     a4a:	fff7c793          	not	a5,a5
     a4e:	8ff9                	and	a5,a5,a4
     a50:	07000737          	lui	a4,0x7000
     a54:	8fd9                	or	a5,a5,a4
     a56:	c185                	beqz	a1,a76 <GPIO_PinRemapConfig+0xbc>
     a58:	01555713          	srli	a4,a0,0x15
     a5c:	0712                	slli	a4,a4,0x4
     a5e:	bfc1                	j	a2e <GPIO_PinRemapConfig+0x74>
     a60:	8155                	srli	a0,a0,0x15
     a62:	0512                	slli	a0,a0,0x4
     a64:	00a69533          	sll	a0,a3,a0
     a68:	fff54793          	not	a5,a0
     a6c:	8ff9                	and	a5,a5,a4
     a6e:	07000737          	lui	a4,0x7000
     a72:	8fd9                	or	a5,a5,a4
     a74:	f5bd                	bnez	a1,9e2 <GPIO_PinRemapConfig+0x28>
     a76:	40010737          	lui	a4,0x40010
     a7a:	c35c                	sw	a5,4(a4)
     a7c:	8082                	ret

00000a7e <GPIO_EXTILineConfig>:
     a7e:	40010737          	lui	a4,0x40010
     a82:	4714                	lw	a3,8(a4)
     a84:	0586                	slli	a1,a1,0x1
     a86:	478d                	li	a5,3
     a88:	00b797b3          	sll	a5,a5,a1
     a8c:	fff7c793          	not	a5,a5
     a90:	8ff5                	and	a5,a5,a3
     a92:	c71c                	sw	a5,8(a4)
     a94:	471c                	lw	a5,8(a4)
     a96:	00b515b3          	sll	a1,a0,a1
     a9a:	8ddd                	or	a1,a1,a5
     a9c:	c70c                	sw	a1,8(a4)
     a9e:	8082                	ret

00000aa0 <NVIC_Init>:
     aa0:	87c1a683          	lw	a3,-1924(gp) # 2000012c <NVIC_Priority_Group>
     aa4:	4785                	li	a5,1
     aa6:	2118                	lbu	a4,0(a0)
     aa8:	02f69063          	bne	a3,a5,ac8 <NVIC_Init+0x28>
     aac:	311c                	lbu	a5,1(a0)
     aae:	02d79c63          	bne	a5,a3,ae6 <NVIC_Init+0x46>
     ab2:	213c                	lbu	a5,2(a0)
     ab4:	079a                	slli	a5,a5,0x6
     ab6:	f807e793          	ori	a5,a5,-128
     aba:	e000e6b7          	lui	a3,0xe000e
     abe:	0ff7f793          	andi	a5,a5,255
     ac2:	96ba                	add	a3,a3,a4
     ac4:	40f68023          	sb	a5,1024(a3) # e000e400 <__global_pointer$+0xc000db50>
     ac8:	4685                	li	a3,1
     aca:	00575793          	srli	a5,a4,0x5
     ace:	00e69733          	sll	a4,a3,a4
     ad2:	4154                	lw	a3,4(a0)
     ad4:	ce89                	beqz	a3,aee <NVIC_Init+0x4e>
     ad6:	04078793          	addi	a5,a5,64 # 300040 <_data_lma+0x2fe398>
     ada:	078a                	slli	a5,a5,0x2
     adc:	e000e6b7          	lui	a3,0xe000e
     ae0:	97b6                	add	a5,a5,a3
     ae2:	c398                	sw	a4,0(a5)
     ae4:	8082                	ret
     ae6:	f3ed                	bnez	a5,ac8 <NVIC_Init+0x28>
     ae8:	213c                	lbu	a5,2(a0)
     aea:	079a                	slli	a5,a5,0x6
     aec:	b7f9                	j	aba <NVIC_Init+0x1a>
     aee:	06078793          	addi	a5,a5,96
     af2:	b7e5                	j	ada <NVIC_Init+0x3a>

00000af4 <RCC_AdjustHSICalibrationValue>:
     af4:	40021737          	lui	a4,0x40021
     af8:	431c                	lw	a5,0(a4)
     afa:	050e                	slli	a0,a0,0x3
     afc:	f077f793          	andi	a5,a5,-249
     b00:	8d5d                	or	a0,a0,a5
     b02:	c308                	sw	a0,0(a4)
     b04:	8082                	ret

00000b06 <RCC_GetClocksFreq>:
     b06:	daaff2ef          	jal	t0,b0 <__riscv_save_0>
     b0a:	40021737          	lui	a4,0x40021
     b0e:	435c                	lw	a5,4(a4)
     b10:	4691                	li	a3,4
     b12:	842a                	mv	s0,a0
     b14:	8bb1                	andi	a5,a5,12
     b16:	00d78563          	beq	a5,a3,b20 <RCC_GetClocksFreq+0x1a>
     b1a:	46a1                	li	a3,8
     b1c:	08d78063          	beq	a5,a3,b9c <RCC_GetClocksFreq+0x96>
     b20:	016e37b7          	lui	a5,0x16e3
     b24:	60078793          	addi	a5,a5,1536 # 16e3600 <_data_lma+0x16e1958>
     b28:	c01c                	sw	a5,0(s0)
     b2a:	400216b7          	lui	a3,0x40021
     b2e:	42dc                	lw	a5,4(a3)
     b30:	8391                	srli	a5,a5,0x4
     b32:	00f7f713          	andi	a4,a5,15
     b36:	200007b7          	lui	a5,0x20000
     b3a:	03878793          	addi	a5,a5,56 # 20000038 <APBAHBPrescTable>
     b3e:	97ba                	add	a5,a5,a4
     b40:	238c                	lbu	a1,0(a5)
     b42:	42dc                	lw	a5,4(a3)
     b44:	4018                	lw	a4,0(s0)
     b46:	0ff5f593          	andi	a1,a1,255
     b4a:	0807f793          	andi	a5,a5,128
     b4e:	00b75533          	srl	a0,a4,a1
     b52:	e781                	bnez	a5,b5a <RCC_GetClocksFreq+0x54>
     b54:	853a                	mv	a0,a4
     b56:	d8eff0ef          	jal	ra,e4 <__udivsi3>
     b5a:	c048                	sw	a0,4(s0)
     b5c:	c408                	sw	a0,8(s0)
     b5e:	c448                	sw	a0,12(s0)
     b60:	400217b7          	lui	a5,0x40021
     b64:	43dc                	lw	a5,4(a5)
     b66:	468d                	li	a3,3
     b68:	83ad                	srli	a5,a5,0xb
     b6a:	8bfd                	andi	a5,a5,31
     b6c:	0037d713          	srli	a4,a5,0x3
     b70:	078a                	slli	a5,a5,0x2
     b72:	8bf1                	andi	a5,a5,28
     b74:	8fd9                	or	a5,a5,a4
     b76:	0137f613          	andi	a2,a5,19
     b7a:	0037f713          	andi	a4,a5,3
     b7e:	00c6f463          	bgeu	a3,a2,b86 <RCC_GetClocksFreq+0x80>
     b82:	ff478713          	addi	a4,a5,-12 # 40020ff4 <__global_pointer$+0x20020744>
     b86:	200007b7          	lui	a5,0x20000
     b8a:	02478793          	addi	a5,a5,36 # 20000024 <ADCPrescTable>
     b8e:	97ba                	add	a5,a5,a4
     b90:	238c                	lbu	a1,0(a5)
     b92:	d52ff0ef          	jal	ra,e4 <__udivsi3>
     b96:	c808                	sw	a0,16(s0)
     b98:	d22ff06f          	j	ba <__riscv_restore_0>
     b9c:	435c                	lw	a5,4(a4)
     b9e:	02dc77b7          	lui	a5,0x2dc7
     ba2:	c0078793          	addi	a5,a5,-1024 # 2dc6c00 <_data_lma+0x2dc4f58>
     ba6:	b749                	j	b28 <RCC_GetClocksFreq+0x22>

00000ba8 <RCC_APB2PeriphClockCmd>:
     ba8:	c599                	beqz	a1,bb6 <RCC_APB2PeriphClockCmd+0xe>
     baa:	40021737          	lui	a4,0x40021
     bae:	4f1c                	lw	a5,24(a4)
     bb0:	8d5d                	or	a0,a0,a5
     bb2:	cf08                	sw	a0,24(a4)
     bb4:	8082                	ret
     bb6:	400217b7          	lui	a5,0x40021
     bba:	4f98                	lw	a4,24(a5)
     bbc:	fff54513          	not	a0,a0
     bc0:	8d79                	and	a0,a0,a4
     bc2:	cf88                	sw	a0,24(a5)
     bc4:	8082                	ret

00000bc6 <RCC_APB2PeriphResetCmd>:
     bc6:	c599                	beqz	a1,bd4 <RCC_APB2PeriphResetCmd+0xe>
     bc8:	40021737          	lui	a4,0x40021
     bcc:	475c                	lw	a5,12(a4)
     bce:	8d5d                	or	a0,a0,a5
     bd0:	c748                	sw	a0,12(a4)
     bd2:	8082                	ret
     bd4:	400217b7          	lui	a5,0x40021
     bd8:	47d8                	lw	a4,12(a5)
     bda:	fff54513          	not	a0,a0
     bde:	8d79                	and	a0,a0,a4
     be0:	c7c8                	sw	a0,12(a5)
     be2:	8082                	ret

00000be4 <TIM_TimeBaseInit>:
     be4:	211e                	lhu	a5,0(a0)
     be6:	40013737          	lui	a4,0x40013
     bea:	c0070713          	addi	a4,a4,-1024 # 40012c00 <__global_pointer$+0x20012350>
     bee:	07c2                	slli	a5,a5,0x10
     bf0:	83c1                	srli	a5,a5,0x10
     bf2:	00e50663          	beq	a0,a4,bfe <TIM_TimeBaseInit+0x1a>
     bf6:	40000737          	lui	a4,0x40000
     bfa:	00e51663          	bne	a0,a4,c06 <TIM_TimeBaseInit+0x22>
     bfe:	21ba                	lhu	a4,2(a1)
     c00:	f8f7f793          	andi	a5,a5,-113
     c04:	8fd9                	or	a5,a5,a4
     c06:	21fa                	lhu	a4,6(a1)
     c08:	cff7f793          	andi	a5,a5,-769
     c0c:	07c2                	slli	a5,a5,0x10
     c0e:	83c1                	srli	a5,a5,0x10
     c10:	8fd9                	or	a5,a5,a4
     c12:	a11e                	sh	a5,0(a0)
     c14:	21de                	lhu	a5,4(a1)
     c16:	b55e                	sh	a5,44(a0)
     c18:	219e                	lhu	a5,0(a1)
     c1a:	b51e                	sh	a5,40(a0)
     c1c:	400137b7          	lui	a5,0x40013
     c20:	c0078793          	addi	a5,a5,-1024 # 40012c00 <__global_pointer$+0x20012350>
     c24:	00f51463          	bne	a0,a5,c2c <TIM_TimeBaseInit+0x48>
     c28:	259c                	lbu	a5,8(a1)
     c2a:	b91e                	sh	a5,48(a0)
     c2c:	4785                	li	a5,1
     c2e:	a95e                	sh	a5,20(a0)
     c30:	8082                	ret

00000c32 <TIM_Cmd>:
     c32:	211e                	lhu	a5,0(a0)
     c34:	c589                	beqz	a1,c3e <TIM_Cmd+0xc>
     c36:	0017e793          	ori	a5,a5,1
     c3a:	a11e                	sh	a5,0(a0)
     c3c:	8082                	ret
     c3e:	07c2                	slli	a5,a5,0x10
     c40:	83c1                	srli	a5,a5,0x10
     c42:	9bf9                	andi	a5,a5,-2
     c44:	07c2                	slli	a5,a5,0x10
     c46:	83c1                	srli	a5,a5,0x10
     c48:	bfcd                	j	c3a <TIM_Cmd+0x8>

00000c4a <TIM_ITConfig>:
     c4a:	255e                	lhu	a5,12(a0)
     c4c:	c601                	beqz	a2,c54 <TIM_ITConfig+0xa>
     c4e:	8ddd                	or	a1,a1,a5
     c50:	a54e                	sh	a1,12(a0)
     c52:	8082                	ret
     c54:	fff5c593          	not	a1,a1
     c58:	8dfd                	and	a1,a1,a5
     c5a:	bfdd                	j	c50 <TIM_ITConfig+0x6>

00000c5c <TIM_GetITStatus>:
     c5c:	291e                	lhu	a5,16(a0)
     c5e:	254a                	lhu	a0,12(a0)
     c60:	8fed                	and	a5,a5,a1
     c62:	0542                	slli	a0,a0,0x10
     c64:	8141                	srli	a0,a0,0x10
     c66:	c789                	beqz	a5,c70 <TIM_GetITStatus+0x14>
     c68:	8d6d                	and	a0,a0,a1
     c6a:	00a03533          	snez	a0,a0
     c6e:	8082                	ret
     c70:	4501                	li	a0,0
     c72:	8082                	ret

00000c74 <TIM_ClearITPendingBit>:
     c74:	fff5c593          	not	a1,a1
     c78:	05c2                	slli	a1,a1,0x10
     c7a:	81c1                	srli	a1,a1,0x10
     c7c:	a90e                	sh	a1,16(a0)
     c7e:	8082                	ret

00000c80 <USART_Init>:
     c80:	c30ff2ef          	jal	t0,b0 <__riscv_save_0>
     c84:	2916                	lhu	a3,16(a0)
     c86:	77f5                	lui	a5,0xffffd
     c88:	17fd                	addi	a5,a5,-1
     c8a:	8ff5                	and	a5,a5,a3
     c8c:	21f6                	lhu	a3,6(a1)
     c8e:	25da                	lhu	a4,12(a1)
     c90:	1121                	addi	sp,sp,-24
     c92:	8fd5                	or	a5,a5,a3
     c94:	a91e                	sh	a5,16(a0)
     c96:	2556                	lhu	a3,12(a0)
     c98:	77fd                	lui	a5,0xfffff
     c9a:	9f378793          	addi	a5,a5,-1549 # ffffe9f3 <__global_pointer$+0xdfffe143>
     c9e:	8ff5                	and	a5,a5,a3
     ca0:	21d6                	lhu	a3,4(a1)
     ca2:	842a                	mv	s0,a0
     ca4:	c02e                	sw	a1,0(sp)
     ca6:	8fd5                	or	a5,a5,a3
     ca8:	2596                	lhu	a3,8(a1)
     caa:	8fd5                	or	a5,a5,a3
     cac:	25b6                	lhu	a3,10(a1)
     cae:	8fd5                	or	a5,a5,a3
     cb0:	a55e                	sh	a5,12(a0)
     cb2:	295e                	lhu	a5,20(a0)
     cb4:	07c2                	slli	a5,a5,0x10
     cb6:	83c1                	srli	a5,a5,0x10
     cb8:	cff7f793          	andi	a5,a5,-769
     cbc:	8f5d                	or	a4,a4,a5
     cbe:	a95a                	sh	a4,20(a0)
     cc0:	0048                	addi	a0,sp,4
     cc2:	3591                	jal	b06 <RCC_GetClocksFreq>
     cc4:	400147b7          	lui	a5,0x40014
     cc8:	80078793          	addi	a5,a5,-2048 # 40013800 <__global_pointer$+0x20012f50>
     ccc:	4582                	lw	a1,0(sp)
     cce:	06f41263          	bne	s0,a5,d32 <USART_Init+0xb2>
     cd2:	47c2                	lw	a5,16(sp)
     cd4:	245a                	lhu	a4,12(s0)
     cd6:	00179513          	slli	a0,a5,0x1
     cda:	953e                	add	a0,a0,a5
     cdc:	0742                	slli	a4,a4,0x10
     cde:	050e                	slli	a0,a0,0x3
     ce0:	8741                	srai	a4,a4,0x10
     ce2:	953e                	add	a0,a0,a5
     ce4:	418c                	lw	a1,0(a1)
     ce6:	04075863          	bgez	a4,d36 <USART_Init+0xb6>
     cea:	0586                	slli	a1,a1,0x1
     cec:	bf8ff0ef          	jal	ra,e4 <__udivsi3>
     cf0:	06400593          	li	a1,100
     cf4:	c02a                	sw	a0,0(sp)
     cf6:	beeff0ef          	jal	ra,e4 <__udivsi3>
     cfa:	4782                	lw	a5,0(sp)
     cfc:	00451493          	slli	s1,a0,0x4
     d00:	06400593          	li	a1,100
     d04:	853e                	mv	a0,a5
     d06:	c0aff0ef          	jal	ra,110 <__umodsi3>
     d0a:	245e                	lhu	a5,12(s0)
     d0c:	07c2                	slli	a5,a5,0x10
     d0e:	87c1                	srai	a5,a5,0x10
     d10:	0207d563          	bgez	a5,d3a <USART_Init+0xba>
     d14:	050e                	slli	a0,a0,0x3
     d16:	06400593          	li	a1,100
     d1a:	03250513          	addi	a0,a0,50
     d1e:	bc6ff0ef          	jal	ra,e4 <__udivsi3>
     d22:	891d                	andi	a0,a0,7
     d24:	8cc9                	or	s1,s1,a0
     d26:	04c2                	slli	s1,s1,0x10
     d28:	80c1                	srli	s1,s1,0x10
     d2a:	a406                	sh	s1,8(s0)
     d2c:	0161                	addi	sp,sp,24
     d2e:	b8cff06f          	j	ba <__riscv_restore_0>
     d32:	47b2                	lw	a5,12(sp)
     d34:	b745                	j	cd4 <USART_Init+0x54>
     d36:	058a                	slli	a1,a1,0x2
     d38:	bf55                	j	cec <USART_Init+0x6c>
     d3a:	0512                	slli	a0,a0,0x4
     d3c:	06400593          	li	a1,100
     d40:	03250513          	addi	a0,a0,50
     d44:	ba0ff0ef          	jal	ra,e4 <__udivsi3>
     d48:	893d                	andi	a0,a0,15
     d4a:	bfe9                	j	d24 <USART_Init+0xa4>

00000d4c <USART_Cmd>:
     d4c:	c591                	beqz	a1,d58 <USART_Cmd+0xc>
     d4e:	255e                	lhu	a5,12(a0)
     d50:	6709                	lui	a4,0x2
     d52:	8fd9                	or	a5,a5,a4
     d54:	a55e                	sh	a5,12(a0)
     d56:	8082                	ret
     d58:	255a                	lhu	a4,12(a0)
     d5a:	77f9                	lui	a5,0xffffe
     d5c:	17fd                	addi	a5,a5,-1
     d5e:	8ff9                	and	a5,a5,a4
     d60:	bfd5                	j	d54 <USART_Cmd+0x8>

00000d62 <USART_SendData>:
     d62:	1ff5f593          	andi	a1,a1,511
     d66:	a14e                	sh	a1,4(a0)
     d68:	8082                	ret

00000d6a <USART_GetFlagStatus>:
     d6a:	210a                	lhu	a0,0(a0)
     d6c:	8d6d                	and	a0,a0,a1
     d6e:	00a03533          	snez	a0,a0
     d72:	8082                	ret

00000d74 <button_init>:
     d74:	b3cff2ef          	jal	t0,b0 <__riscv_save_0>
     d78:	1171                	addi	sp,sp,-4
     d7a:	84ae                	mv	s1,a1
     d7c:	8432                	mv	s0,a2
     d7e:	4581                	li	a1,0
     d80:	02c00613          	li	a2,44
     d84:	c036                	sw	a3,0(sp)
     d86:	bd4ff0ef          	jal	ra,15a <memset>
     d8a:	00143613          	seqz	a2,s0
     d8e:	063e                	slli	a2,a2,0xf
     d90:	8805                	andi	s0,s0,1
     d92:	043a                	slli	s0,s0,0xe
     d94:	08066613          	ori	a2,a2,128
     d98:	8e41                	or	a2,a2,s0
     d9a:	a132                	sh	a2,2(a0)
     d9c:	4682                	lw	a3,0(sp)
     d9e:	c504                	sw	s1,8(a0)
     da0:	a154                	sb	a3,4(a0)
     da2:	0111                	addi	sp,sp,4
     da4:	b16ff06f          	j	ba <__riscv_restore_0>

00000da8 <button_attach>:
     da8:	058a                	slli	a1,a1,0x2
     daa:	95aa                	add	a1,a1,a0
     dac:	c5d0                	sw	a2,12(a1)
     dae:	8082                	ret

00000db0 <button_start>:
     db0:	8801a683          	lw	a3,-1920(gp) # 20000130 <head_handle>
     db4:	88018793          	addi	a5,gp,-1920 # 20000130 <head_handle>
     db8:	8736                	mv	a4,a3
     dba:	e709                	bnez	a4,dc4 <button_start+0x14>
     dbc:	d514                	sw	a3,40(a0)
     dbe:	c388                	sw	a0,0(a5)
     dc0:	4501                	li	a0,0
     dc2:	8082                	ret
     dc4:	00a70463          	beq	a4,a0,dcc <button_start+0x1c>
     dc8:	5718                	lw	a4,40(a4)
     dca:	bfc5                	j	dba <button_start+0xa>
     dcc:	557d                	li	a0,-1
     dce:	8082                	ret

00000dd0 <button_stop>:
     dd0:	8801a783          	lw	a5,-1920(gp) # 20000130 <head_handle>
     dd4:	88018713          	addi	a4,gp,-1920 # 20000130 <head_handle>
     dd8:	e391                	bnez	a5,ddc <button_stop+0xc>
     dda:	8082                	ret
     ddc:	5794                	lw	a3,40(a5)
     dde:	00a79463          	bne	a5,a0,de6 <button_stop+0x16>
     de2:	c314                	sw	a3,0(a4)
     de4:	8082                	ret
     de6:	02878713          	addi	a4,a5,40 # ffffe028 <__global_pointer$+0xdfffd778>
     dea:	87b6                	mv	a5,a3
     dec:	b7f5                	j	dd8 <button_stop+0x8>

00000dee <button_ticks>:
     dee:	ac2ff2ef          	jal	t0,b0 <__riscv_save_0>
     df2:	8801a403          	lw	s0,-1920(gp) # 20000130 <head_handle>
     df6:	6489                	lui	s1,0x2
     df8:	e019                	bnez	s0,dfe <button_ticks+0x10>
     dfa:	ac0ff06f          	j	ba <__riscv_restore_0>
     dfe:	441c                	lw	a5,8(s0)
     e00:	2048                	lbu	a0,4(s0)
     e02:	9782                	jalr	a5
     e04:	203e                	lhu	a5,2(s0)
     e06:	7007f793          	andi	a5,a5,1792
     e0a:	c781                	beqz	a5,e12 <button_ticks+0x24>
     e0c:	201e                	lhu	a5,0(s0)
     e0e:	0785                	addi	a5,a5,1
     e10:	a01e                	sh	a5,0(s0)
     e12:	4014                	lw	a3,0(s0)
     e14:	203a                	lhu	a4,2(s0)
     e16:	01f6d793          	srli	a5,a3,0x1f
     e1a:	04f50463          	beq	a0,a5,e62 <button_ticks+0x74>
     e1e:	82ed                	srli	a3,a3,0x1b
     e20:	77f1                	lui	a5,0xffffc
     e22:	0685                	addi	a3,a3,1
     e24:	8a9d                	andi	a3,a3,7
     e26:	7ff78613          	addi	a2,a5,2047 # ffffc7ff <__global_pointer$+0xdfffbf4f>
     e2a:	00e677b3          	and	a5,a2,a4
     e2e:	00b69593          	slli	a1,a3,0xb
     e32:	8fcd                	or	a5,a5,a1
     e34:	a03e                	sh	a5,2(s0)
     e36:	4709                	li	a4,2
     e38:	00d77863          	bgeu	a4,a3,e48 <button_ticks+0x5a>
     e3c:	07c6                	slli	a5,a5,0x11
     e3e:	053e                	slli	a0,a0,0xf
     e40:	83c5                	srli	a5,a5,0x11
     e42:	8fc9                	or	a5,a5,a0
     e44:	8ff1                	and	a5,a5,a2
     e46:	a03e                	sh	a5,2(s0)
     e48:	401c                	lw	a5,0(s0)
     e4a:	4695                	li	a3,5
     e4c:	0187d713          	srli	a4,a5,0x18
     e50:	8b1d                	andi	a4,a4,7
     e52:	16e6e063          	bltu	a3,a4,fb2 <button_ticks+0x1c4>
     e56:	070a                	slli	a4,a4,0x2
     e58:	c8048693          	addi	a3,s1,-896 # 1c80 <__muldi3+0x11c>
     e5c:	9736                	add	a4,a4,a3
     e5e:	4318                	lw	a4,0(a4)
     e60:	8702                	jr	a4
     e62:	77f1                	lui	a5,0xffffc
     e64:	7ff78793          	addi	a5,a5,2047 # ffffc7ff <__global_pointer$+0xdfffbf4f>
     e68:	8f7d                	and	a4,a4,a5
     e6a:	a03a                	sh	a4,2(s0)
     e6c:	bff1                	j	e48 <button_ticks+0x5a>
     e6e:	203a                	lhu	a4,2(s0)
     e70:	01e7d693          	srli	a3,a5,0x1e
     e74:	8a85                	andi	a3,a3,1
     e76:	83fd                	srli	a5,a5,0x1f
     e78:	f0f77713          	andi	a4,a4,-241
     e7c:	02d79063          	bne	a5,a3,e9c <button_ticks+0xae>
     e80:	445c                	lw	a5,12(s0)
     e82:	a03a                	sh	a4,2(s0)
     e84:	c399                	beqz	a5,e8a <button_ticks+0x9c>
     e86:	8522                	mv	a0,s0
     e88:	9782                	jalr	a5
     e8a:	4018                	lw	a4,0(s0)
     e8c:	f8f007b7          	lui	a5,0xf8f00
     e90:	8ff9                	and	a5,a5,a4
     e92:	01010737          	lui	a4,0x1010
     e96:	8fd9                	or	a5,a5,a4
     e98:	c01c                	sw	a5,0(s0)
     e9a:	a021                	j	ea2 <button_ticks+0xb4>
     e9c:	08076713          	ori	a4,a4,128
     ea0:	a03a                	sh	a4,2(s0)
     ea2:	5400                	lw	s0,40(s0)
     ea4:	bf91                	j	df8 <button_ticks+0xa>
     ea6:	01e7d713          	srli	a4,a5,0x1e
     eaa:	8b05                	andi	a4,a4,1
     eac:	83fd                	srli	a5,a5,0x1f
     eae:	02e78363          	beq	a5,a4,ed4 <button_ticks+0xe6>
     eb2:	203e                	lhu	a5,2(s0)
     eb4:	f0f7f793          	andi	a5,a5,-241
     eb8:	0107e793          	ori	a5,a5,16
     ebc:	a03e                	sh	a5,2(s0)
     ebe:	481c                	lw	a5,16(s0)
     ec0:	c399                	beqz	a5,ec6 <button_ticks+0xd8>
     ec2:	8522                	mv	a0,s0
     ec4:	9782                	jalr	a5
     ec6:	4018                	lw	a4,0(s0)
     ec8:	f8ff07b7          	lui	a5,0xf8ff0
     ecc:	8ff9                	and	a5,a5,a4
     ece:	02000737          	lui	a4,0x2000
     ed2:	b7d1                	j	e96 <button_ticks+0xa8>
     ed4:	201a                	lhu	a4,0(s0)
     ed6:	0c800793          	li	a5,200
     eda:	fce7f4e3          	bgeu	a5,a4,ea2 <button_ticks+0xb4>
     ede:	203e                	lhu	a5,2(s0)
     ee0:	f0f7f793          	andi	a5,a5,-241
     ee4:	0507e793          	ori	a5,a5,80
     ee8:	a03e                	sh	a5,2(s0)
     eea:	501c                	lw	a5,32(s0)
     eec:	c399                	beqz	a5,ef2 <button_ticks+0x104>
     eee:	8522                	mv	a0,s0
     ef0:	9782                	jalr	a5
     ef2:	203e                	lhu	a5,2(s0)
     ef4:	8ff7f793          	andi	a5,a5,-1793
     ef8:	5007e793          	ori	a5,a5,1280
     efc:	a03e                	sh	a5,2(s0)
     efe:	b755                	j	ea2 <button_ticks+0xb4>
     f00:	01e7d713          	srli	a4,a5,0x1e
     f04:	8b05                	andi	a4,a4,1
     f06:	83fd                	srli	a5,a5,0x1f
     f08:	04e79163          	bne	a5,a4,f4a <button_ticks+0x15c>
     f0c:	203e                	lhu	a5,2(s0)
     f0e:	f0f7f793          	andi	a5,a5,-241
     f12:	a03e                	sh	a5,2(s0)
     f14:	445c                	lw	a5,12(s0)
     f16:	c399                	beqz	a5,f1c <button_ticks+0x12e>
     f18:	8522                	mv	a0,s0
     f1a:	9782                	jalr	a5
     f1c:	203e                	lhu	a5,2(s0)
     f1e:	473d                	li	a4,15
     f20:	00f7f693          	andi	a3,a5,15
     f24:	00e68863          	beq	a3,a4,f34 <button_ticks+0x146>
     f28:	00178713          	addi	a4,a5,1 # f8ff0001 <__global_pointer$+0xd8fef751>
     f2c:	8b3d                	andi	a4,a4,15
     f2e:	9bc1                	andi	a5,a5,-16
     f30:	8fd9                	or	a5,a5,a4
     f32:	a03e                	sh	a5,2(s0)
     f34:	485c                	lw	a5,20(s0)
     f36:	c399                	beqz	a5,f3c <button_ticks+0x14e>
     f38:	8522                	mv	a0,s0
     f3a:	9782                	jalr	a5
     f3c:	4018                	lw	a4,0(s0)
     f3e:	f8ff07b7          	lui	a5,0xf8ff0
     f42:	8ff9                	and	a5,a5,a4
     f44:	03000737          	lui	a4,0x3000
     f48:	b7b9                	j	e96 <button_ticks+0xa8>
     f4a:	201a                	lhu	a4,0(s0)
     f4c:	03c00793          	li	a5,60
     f50:	f4e7f9e3          	bgeu	a5,a4,ea2 <button_ticks+0xb4>
     f54:	203e                	lhu	a5,2(s0)
     f56:	4685                	li	a3,1
     f58:	00f7f713          	andi	a4,a5,15
     f5c:	00d71c63          	bne	a4,a3,f74 <button_ticks+0x186>
     f60:	f0f7f793          	andi	a5,a5,-241
     f64:	0307e793          	ori	a5,a5,48
     f68:	a03e                	sh	a5,2(s0)
     f6a:	4c1c                	lw	a5,24(s0)
     f6c:	c3b9                	beqz	a5,fb2 <button_ticks+0x1c4>
     f6e:	8522                	mv	a0,s0
     f70:	9782                	jalr	a5
     f72:	a081                	j	fb2 <button_ticks+0x1c4>
     f74:	4689                	li	a3,2
     f76:	02d71e63          	bne	a4,a3,fb2 <button_ticks+0x1c4>
     f7a:	f0f7f793          	andi	a5,a5,-241
     f7e:	0407e793          	ori	a5,a5,64
     f82:	a03e                	sh	a5,2(s0)
     f84:	4c5c                	lw	a5,28(s0)
     f86:	b7dd                	j	f6c <button_ticks+0x17e>
     f88:	01e7d713          	srli	a4,a5,0x1e
     f8c:	8b05                	andi	a4,a4,1
     f8e:	83fd                	srli	a5,a5,0x1f
     f90:	02e78563          	beq	a5,a4,fba <button_ticks+0x1cc>
     f94:	203e                	lhu	a5,2(s0)
     f96:	f0f7f793          	andi	a5,a5,-241
     f9a:	0107e793          	ori	a5,a5,16
     f9e:	a03e                	sh	a5,2(s0)
     fa0:	481c                	lw	a5,16(s0)
     fa2:	c399                	beqz	a5,fa8 <button_ticks+0x1ba>
     fa4:	8522                	mv	a0,s0
     fa6:	9782                	jalr	a5
     fa8:	201a                	lhu	a4,0(s0)
     faa:	03b00793          	li	a5,59
     fae:	f0e7fce3          	bgeu	a5,a4,ec6 <button_ticks+0xd8>
     fb2:	203e                	lhu	a5,2(s0)
     fb4:	8ff7f793          	andi	a5,a5,-1793
     fb8:	b791                	j	efc <button_ticks+0x10e>
     fba:	201a                	lhu	a4,0(s0)
     fbc:	03c00793          	li	a5,60
     fc0:	eee7f1e3          	bgeu	a5,a4,ea2 <button_ticks+0xb4>
     fc4:	203e                	lhu	a5,2(s0)
     fc6:	8ff7f793          	andi	a5,a5,-1793
     fca:	1007e793          	ori	a5,a5,256
     fce:	b73d                	j	efc <button_ticks+0x10e>
     fd0:	203a                	lhu	a4,2(s0)
     fd2:	01e7d693          	srli	a3,a5,0x1e
     fd6:	8a85                	andi	a3,a3,1
     fd8:	83fd                	srli	a5,a5,0x1f
     fda:	f0f77713          	andi	a4,a4,-241
     fde:	00d79b63          	bne	a5,a3,ff4 <button_ticks+0x206>
     fe2:	505c                	lw	a5,36(s0)
     fe4:	06076713          	ori	a4,a4,96
     fe8:	a03a                	sh	a4,2(s0)
     fea:	ea078ce3          	beqz	a5,ea2 <button_ticks+0xb4>
     fee:	8522                	mv	a0,s0
     ff0:	9782                	jalr	a5
     ff2:	bd45                	j	ea2 <button_ticks+0xb4>
     ff4:	01076713          	ori	a4,a4,16
     ff8:	a03a                	sh	a4,2(s0)
     ffa:	481c                	lw	a5,16(s0)
     ffc:	bf85                	j	f6c <button_ticks+0x17e>

00000ffe <CX588_OneWire_WriteByte>:
     ffe:	8b2ff2ef          	jal	t0,b0 <__riscv_save_0>
    1002:	4591                	li	a1,4
    1004:	84aa                	mv	s1,a0
    1006:	40011537          	lui	a0,0x40011
    100a:	9adff0ef          	jal	ra,9b6 <GPIO_ResetBits>
    100e:	4519                	li	a0,6
    1010:	2cb9                	jal	126e <Delay_Ms>
    1012:	4421                	li	s0,8
    1014:	0014f793          	andi	a5,s1,1
    1018:	4591                	li	a1,4
    101a:	40011537          	lui	a0,0x40011
    101e:	cb95                	beqz	a5,1052 <CX588_OneWire_WriteByte+0x54>
    1020:	993ff0ef          	jal	ra,9b2 <GPIO_SetBits>
    1024:	4b000513          	li	a0,1200
    1028:	2431                	jal	1234 <Delay_Us>
    102a:	40011537          	lui	a0,0x40011
    102e:	4591                	li	a1,4
    1030:	987ff0ef          	jal	ra,9b6 <GPIO_ResetBits>
    1034:	19000513          	li	a0,400
    1038:	147d                	addi	s0,s0,-1
    103a:	0ff47413          	andi	s0,s0,255
    103e:	2add                	jal	1234 <Delay_Us>
    1040:	8085                	srli	s1,s1,0x1
    1042:	f869                	bnez	s0,1014 <CX588_OneWire_WriteByte+0x16>
    1044:	4591                	li	a1,4
    1046:	40011537          	lui	a0,0x40011
    104a:	969ff0ef          	jal	ra,9b2 <GPIO_SetBits>
    104e:	86cff06f          	j	ba <__riscv_restore_0>
    1052:	961ff0ef          	jal	ra,9b2 <GPIO_SetBits>
    1056:	19000513          	li	a0,400
    105a:	2ae9                	jal	1234 <Delay_Us>
    105c:	40011537          	lui	a0,0x40011
    1060:	4591                	li	a1,4
    1062:	955ff0ef          	jal	ra,9b6 <GPIO_ResetBits>
    1066:	4b000513          	li	a0,1200
    106a:	b7f9                	j	1038 <CX588_OneWire_WriteByte+0x3a>

0000106c <CX588_GOIO_INIT>:
    106c:	844ff2ef          	jal	t0,b0 <__riscv_save_0>
    1070:	1151                	addi	sp,sp,-12
    1072:	4585                	li	a1,1
    1074:	4541                	li	a0,16
    1076:	c002                	sw	zero,0(sp)
    1078:	c202                	sw	zero,4(sp)
    107a:	c402                	sw	zero,8(sp)
    107c:	3635                	jal	ba8 <RCC_APB2PeriphClockCmd>
    107e:	4789                	li	a5,2
    1080:	807c                	sh	a5,0(sp)
    1082:	858a                	mv	a1,sp
    1084:	04800793          	li	a5,72
    1088:	40011537          	lui	a0,0x40011
    108c:	c43e                	sw	a5,8(sp)
    108e:	89fff0ef          	jal	ra,92c <GPIO_Init>
    1092:	4585                	li	a1,1
    1094:	4541                	li	a0,16
    1096:	3e09                	jal	ba8 <RCC_APB2PeriphClockCmd>
    1098:	4791                	li	a5,4
    109a:	807c                	sh	a5,0(sp)
    109c:	47c1                	li	a5,16
    109e:	c43e                	sw	a5,8(sp)
    10a0:	858a                	mv	a1,sp
    10a2:	478d                	li	a5,3
    10a4:	40011537          	lui	a0,0x40011
    10a8:	c23e                	sw	a5,4(sp)
    10aa:	883ff0ef          	jal	ra,92c <GPIO_Init>
    10ae:	4591                	li	a1,4
    10b0:	40011537          	lui	a0,0x40011
    10b4:	8ffff0ef          	jal	ra,9b2 <GPIO_SetBits>
    10b8:	0131                	addi	sp,sp,12
    10ba:	800ff06f          	j	ba <__riscv_restore_0>

000010be <CX588_GOIO_DEINIT>:
    10be:	ff3fe2ef          	jal	t0,b0 <__riscv_save_0>
    10c2:	40011537          	lui	a0,0x40011
    10c6:	81fff0ef          	jal	ra,8e4 <GPIO_DeInit>
    10ca:	40011537          	lui	a0,0x40011
    10ce:	817ff0ef          	jal	ra,8e4 <GPIO_DeInit>
    10d2:	fe9fe06f          	j	ba <__riscv_restore_0>

000010d6 <CX588_SET_Sound_Size>:
    10d6:	fdbfe2ef          	jal	t0,b0 <__riscv_save_0>
    10da:	0ff57513          	andi	a0,a0,255
    10de:	3705                	jal	ffe <CX588_OneWire_WriteByte>
    10e0:	fdbfe06f          	j	ba <__riscv_restore_0>

000010e4 <CX588_Play_Sound>:
    10e4:	0ce00793          	li	a5,206
    10e8:	00a7e963          	bltu	a5,a0,10fa <CX588_Play_Sound+0x16>
    10ec:	fc5fe2ef          	jal	t0,b0 <__riscv_save_0>
    10f0:	3739                	jal	ffe <CX588_OneWire_WriteByte>
    10f2:	4551                	li	a0,20
    10f4:	2aad                	jal	126e <Delay_Ms>
    10f6:	fc5fe06f          	j	ba <__riscv_restore_0>
    10fa:	8082                	ret

000010fc <CX588_Get_Busy_State>:
    10fc:	fb5fe2ef          	jal	t0,b0 <__riscv_save_0>
    1100:	4589                	li	a1,2
    1102:	40011537          	lui	a0,0x40011
    1106:	8a3ff0ef          	jal	ra,9a8 <GPIO_ReadInputDataBit>
    110a:	fb1fe06f          	j	ba <__riscv_restore_0>

0000110e <Switch_GPIO_INIT>:
    110e:	fa3fe2ef          	jal	t0,b0 <__riscv_save_0>
    1112:	1131                	addi	sp,sp,-20
    1114:	4585                	li	a1,1
    1116:	4541                	li	a0,16
    1118:	c402                	sw	zero,8(sp)
    111a:	c602                	sw	zero,12(sp)
    111c:	c802                	sw	zero,16(sp)
    111e:	c002                	sw	zero,0(sp)
    1120:	c202                	sw	zero,4(sp)
    1122:	a87ff0ef          	jal	ra,ba8 <RCC_APB2PeriphClockCmd>
    1126:	47c1                	li	a5,16
    1128:	04800413          	li	s0,72
    112c:	002c                	addi	a1,sp,8
    112e:	40011537          	lui	a0,0x40011
    1132:	847c                	sh	a5,8(sp)
    1134:	c822                	sw	s0,16(sp)
    1136:	ff6ff0ef          	jal	ra,92c <GPIO_Init>
    113a:	4585                	li	a1,1
    113c:	4511                	li	a0,4
    113e:	a6bff0ef          	jal	ra,ba8 <RCC_APB2PeriphClockCmd>
    1142:	4585                	li	a1,1
    1144:	4505                	li	a0,1
    1146:	a63ff0ef          	jal	ra,ba8 <RCC_APB2PeriphClockCmd>
    114a:	4581                	li	a1,0
    114c:	6521                	lui	a0,0x8
    114e:	86dff0ef          	jal	ra,9ba <GPIO_PinRemapConfig>
    1152:	400114b7          	lui	s1,0x40011
    1156:	4791                	li	a5,4
    1158:	002c                	addi	a1,sp,8
    115a:	80048513          	addi	a0,s1,-2048 # 40010800 <__global_pointer$+0x2000ff50>
    115e:	847c                	sh	a5,8(sp)
    1160:	c822                	sw	s0,16(sp)
    1162:	fcaff0ef          	jal	ra,92c <GPIO_Init>
    1166:	4585                	li	a1,1
    1168:	02000513          	li	a0,32
    116c:	a3dff0ef          	jal	ra,ba8 <RCC_APB2PeriphClockCmd>
    1170:	002c                	addi	a1,sp,8
    1172:	04000793          	li	a5,64
    1176:	40048513          	addi	a0,s1,1024
    117a:	847c                	sh	a5,8(sp)
    117c:	c822                	sw	s0,16(sp)
    117e:	faeff0ef          	jal	ra,92c <GPIO_Init>
    1182:	47d1                	li	a5,20
    1184:	807c                	sh	a5,0(sp)
    1186:	4785                	li	a5,1
    1188:	850a                	mv	a0,sp
    118a:	815c                	sb	a5,2(sp)
    118c:	4785                	li	a5,1
    118e:	c23e                	sw	a5,4(sp)
    1190:	911ff0ef          	jal	ra,aa0 <NVIC_Init>
    1194:	e9cff0ef          	jal	ra,830 <EXTI_DeInit>
    1198:	0151                	addi	sp,sp,20
    119a:	f21fe06f          	j	ba <__riscv_restore_0>

0000119e <Switch_EXTI_INIT>:
    119e:	f13fe2ef          	jal	t0,b0 <__riscv_save_0>
    11a2:	1141                	addi	sp,sp,-16
    11a4:	842a                	mv	s0,a0
    11a6:	4591                	li	a1,4
    11a8:	4509                	li	a0,2
    11aa:	c002                	sw	zero,0(sp)
    11ac:	c202                	sw	zero,4(sp)
    11ae:	c402                	sw	zero,8(sp)
    11b0:	c602                	sw	zero,12(sp)
    11b2:	8cdff0ef          	jal	ra,a7e <GPIO_EXTILineConfig>
    11b6:	47c1                	li	a5,16
    11b8:	44b1                	li	s1,12
    11ba:	850a                	mv	a0,sp
    11bc:	c03e                	sw	a5,0(sp)
    11be:	c426                	sw	s1,8(sp)
    11c0:	c622                	sw	s0,12(sp)
    11c2:	c202                	sw	zero,4(sp)
    11c4:	e8eff0ef          	jal	ra,852 <EXTI_Init>
    11c8:	4589                	li	a1,2
    11ca:	4501                	li	a0,0
    11cc:	8b3ff0ef          	jal	ra,a7e <GPIO_EXTILineConfig>
    11d0:	4791                	li	a5,4
    11d2:	850a                	mv	a0,sp
    11d4:	c03e                	sw	a5,0(sp)
    11d6:	c426                	sw	s1,8(sp)
    11d8:	c622                	sw	s0,12(sp)
    11da:	c202                	sw	zero,4(sp)
    11dc:	e76ff0ef          	jal	ra,852 <EXTI_Init>
    11e0:	4599                	li	a1,6
    11e2:	450d                	li	a0,3
    11e4:	89bff0ef          	jal	ra,a7e <GPIO_EXTILineConfig>
    11e8:	04000793          	li	a5,64
    11ec:	850a                	mv	a0,sp
    11ee:	c03e                	sw	a5,0(sp)
    11f0:	c426                	sw	s1,8(sp)
    11f2:	c622                	sw	s0,12(sp)
    11f4:	c202                	sw	zero,4(sp)
    11f6:	e5cff0ef          	jal	ra,852 <EXTI_Init>
    11fa:	0141                	addi	sp,sp,16
    11fc:	ebffe06f          	j	ba <__riscv_restore_0>

00001200 <Delay_Init>:
    1200:	eb1fe2ef          	jal	t0,b0 <__riscv_save_0>
    1204:	200007b7          	lui	a5,0x20000
    1208:	0207a503          	lw	a0,32(a5) # 20000020 <SystemCoreClock>
    120c:	007a15b7          	lui	a1,0x7a1
    1210:	20058593          	addi	a1,a1,512 # 7a1200 <_data_lma+0x79f558>
    1214:	ed1fe0ef          	jal	ra,e4 <__udivsi3>
    1218:	0ff57513          	andi	a0,a0,255
    121c:	88a18323          	sb	a0,-1914(gp) # 20000136 <p_us>
    1220:	00551793          	slli	a5,a0,0x5
    1224:	8f89                	sub	a5,a5,a0
    1226:	078a                	slli	a5,a5,0x2
    1228:	953e                	add	a0,a0,a5
    122a:	050e                	slli	a0,a0,0x3
    122c:	88a19223          	sh	a0,-1916(gp) # 20000134 <p_ms>
    1230:	e8bfe06f          	j	ba <__riscv_restore_0>

00001234 <Delay_Us>:
    1234:	e7dfe2ef          	jal	t0,b0 <__riscv_save_0>
    1238:	e000f437          	lui	s0,0xe000f
    123c:	405c                	lw	a5,4(s0)
    123e:	85aa                	mv	a1,a0
    1240:	9bf9                	andi	a5,a5,-2
    1242:	c05c                	sw	a5,4(s0)
    1244:	8861c503          	lbu	a0,-1914(gp) # 20000136 <p_us>
    1248:	e7dfe0ef          	jal	ra,c4 <__mulsi3>
    124c:	c808                	sw	a0,16(s0)
    124e:	00042423          	sw	zero,8(s0) # e000f008 <__global_pointer$+0xc000e758>
    1252:	401c                	lw	a5,0(s0)
    1254:	0017e793          	ori	a5,a5,1
    1258:	c01c                	sw	a5,0(s0)
    125a:	e000f7b7          	lui	a5,0xe000f
    125e:	43d8                	lw	a4,4(a5)
    1260:	8b05                	andi	a4,a4,1
    1262:	df75                	beqz	a4,125e <Delay_Us+0x2a>
    1264:	4398                	lw	a4,0(a5)
    1266:	9b79                	andi	a4,a4,-2
    1268:	c398                	sw	a4,0(a5)
    126a:	e51fe06f          	j	ba <__riscv_restore_0>

0000126e <Delay_Ms>:
    126e:	e43fe2ef          	jal	t0,b0 <__riscv_save_0>
    1272:	e000f437          	lui	s0,0xe000f
    1276:	405c                	lw	a5,4(s0)
    1278:	85aa                	mv	a1,a0
    127a:	9bf9                	andi	a5,a5,-2
    127c:	c05c                	sw	a5,4(s0)
    127e:	8841d503          	lhu	a0,-1916(gp) # 20000134 <p_ms>
    1282:	e43fe0ef          	jal	ra,c4 <__mulsi3>
    1286:	c808                	sw	a0,16(s0)
    1288:	00042423          	sw	zero,8(s0) # e000f008 <__global_pointer$+0xc000e758>
    128c:	401c                	lw	a5,0(s0)
    128e:	0017e793          	ori	a5,a5,1
    1292:	c01c                	sw	a5,0(s0)
    1294:	e000f7b7          	lui	a5,0xe000f
    1298:	43d8                	lw	a4,4(a5)
    129a:	8b05                	andi	a4,a4,1
    129c:	df75                	beqz	a4,1298 <Delay_Ms+0x2a>
    129e:	4398                	lw	a4,0(a5)
    12a0:	9b79                	andi	a4,a4,-2
    12a2:	c398                	sw	a4,0(a5)
    12a4:	e17fe06f          	j	ba <__riscv_restore_0>

000012a8 <USART_Printf_Init>:
    12a8:	e09fe2ef          	jal	t0,b0 <__riscv_save_0>
    12ac:	842a                	mv	s0,a0
    12ae:	6511                	lui	a0,0x4
    12b0:	1111                	addi	sp,sp,-28
    12b2:	4585                	li	a1,1
    12b4:	02150513          	addi	a0,a0,33 # 4021 <_data_lma+0x2379>
    12b8:	8f1ff0ef          	jal	ra,ba8 <RCC_APB2PeriphClockCmd>
    12bc:	80000537          	lui	a0,0x80000
    12c0:	4585                	li	a1,1
    12c2:	0511                	addi	a0,a0,4
    12c4:	ef6ff0ef          	jal	ra,9ba <GPIO_PinRemapConfig>
    12c8:	4785                	li	a5,1
    12ca:	807c                	sh	a5,0(sp)
    12cc:	40011537          	lui	a0,0x40011
    12d0:	478d                	li	a5,3
    12d2:	c23e                	sw	a5,4(sp)
    12d4:	858a                	mv	a1,sp
    12d6:	47e1                	li	a5,24
    12d8:	40050513          	addi	a0,a0,1024 # 40011400 <__global_pointer$+0x20010b50>
    12dc:	c43e                	sw	a5,8(sp)
    12de:	e4eff0ef          	jal	ra,92c <GPIO_Init>
    12e2:	c622                	sw	s0,12(sp)
    12e4:	40014437          	lui	s0,0x40014
    12e8:	000807b7          	lui	a5,0x80
    12ec:	006c                	addi	a1,sp,12
    12ee:	80040513          	addi	a0,s0,-2048 # 40013800 <__global_pointer$+0x20012f50>
    12f2:	ca3e                	sw	a5,20(sp)
    12f4:	c802                	sw	zero,16(sp)
    12f6:	00011c23          	sh	zero,24(sp)
    12fa:	987ff0ef          	jal	ra,c80 <USART_Init>
    12fe:	4585                	li	a1,1
    1300:	80040513          	addi	a0,s0,-2048
    1304:	a49ff0ef          	jal	ra,d4c <USART_Cmd>
    1308:	0171                	addi	sp,sp,28
    130a:	db1fe06f          	j	ba <__riscv_restore_0>

0000130e <_write>:
    130e:	da3fe2ef          	jal	t0,b0 <__riscv_save_0>
    1312:	1171                	addi	sp,sp,-4
    1314:	84ae                	mv	s1,a1
    1316:	4401                	li	s0,0
    1318:	02c45f63          	bge	s0,a2,1356 <_write+0x48>
    131c:	400147b7          	lui	a5,0x40014
    1320:	80078713          	addi	a4,a5,-2048 # 40013800 <__global_pointer$+0x20012f50>
    1324:	853a                	mv	a0,a4
    1326:	04000593          	li	a1,64
    132a:	c032                	sw	a2,0(sp)
    132c:	a3fff0ef          	jal	ra,d6a <USART_GetFlagStatus>
    1330:	400147b7          	lui	a5,0x40014
    1334:	80078713          	addi	a4,a5,-2048 # 40013800 <__global_pointer$+0x20012f50>
    1338:	4602                	lw	a2,0(sp)
    133a:	d56d                	beqz	a0,1324 <_write+0x16>
    133c:	00848733          	add	a4,s1,s0
    1340:	00070583          	lb	a1,0(a4) # 3000000 <_data_lma+0x2ffe358>
    1344:	80078513          	addi	a0,a5,-2048
    1348:	0405                	addi	s0,s0,1
    134a:	05c2                	slli	a1,a1,0x10
    134c:	81c1                	srli	a1,a1,0x10
    134e:	a15ff0ef          	jal	ra,d62 <USART_SendData>
    1352:	4602                	lw	a2,0(sp)
    1354:	b7d1                	j	1318 <_write+0xa>
    1356:	8532                	mv	a0,a2
    1358:	0111                	addi	sp,sp,4
    135a:	d61fe06f          	j	ba <__riscv_restore_0>

0000135e <_sbrk>:
    135e:	20000737          	lui	a4,0x20000
    1362:	04870713          	addi	a4,a4,72 # 20000048 <curbrk.4094>
    1366:	431c                	lw	a5,0(a4)
    1368:	88c18693          	addi	a3,gp,-1908 # 2000013c <_ebss>
    136c:	953e                	add	a0,a0,a5
    136e:	00d56963          	bltu	a0,a3,1380 <_sbrk+0x22>
    1372:	e5018693          	addi	a3,gp,-432 # 20000700 <_heap_end>
    1376:	00a6e563          	bltu	a3,a0,1380 <_sbrk+0x22>
    137a:	c308                	sw	a0,0(a4)
    137c:	853e                	mv	a0,a5
    137e:	8082                	ret
    1380:	57fd                	li	a5,-1
    1382:	bfed                	j	137c <_sbrk+0x1e>

00001384 <printchar>:
    1384:	1141                	addi	sp,sp,-16
    1386:	c606                	sw	ra,12(sp)
    1388:	c02e                	sw	a1,0(sp)
    138a:	cd0d                	beqz	a0,13c4 <printchar+0x40>
    138c:	4118                	lw	a4,0(a0)
    138e:	87aa                	mv	a5,a0
    1390:	c305                	beqz	a4,13b0 <printchar+0x2c>
    1392:	4158                	lw	a4,4(a0)
    1394:	557d                	li	a0,-1
    1396:	cb11                	beqz	a4,13aa <printchar+0x26>
    1398:	4685                	li	a3,1
    139a:	00d71b63          	bne	a4,a3,13b0 <printchar+0x2c>
    139e:	4798                	lw	a4,8(a5)
    13a0:	00070023          	sb	zero,0(a4)
    13a4:	0007a223          	sw	zero,4(a5)
    13a8:	4505                	li	a0,1
    13aa:	40b2                	lw	ra,12(sp)
    13ac:	0141                	addi	sp,sp,16
    13ae:	8082                	ret
    13b0:	4798                	lw	a4,8(a5)
    13b2:	4682                	lw	a3,0(sp)
    13b4:	a314                	sb	a3,0(a4)
    13b6:	4798                	lw	a4,8(a5)
    13b8:	0705                	addi	a4,a4,1
    13ba:	c798                	sw	a4,8(a5)
    13bc:	43d8                	lw	a4,4(a5)
    13be:	177d                	addi	a4,a4,-1
    13c0:	c3d8                	sw	a4,4(a5)
    13c2:	b7dd                	j	13a8 <printchar+0x24>
    13c4:	4605                	li	a2,1
    13c6:	858a                	mv	a1,sp
    13c8:	3799                	jal	130e <_write>
    13ca:	bff9                	j	13a8 <printchar+0x24>

000013cc <prints>:
    13cc:	1101                	addi	sp,sp,-32
    13ce:	cc22                	sw	s0,24(sp)
    13d0:	c22e                	sw	a1,4(sp)
    13d2:	ce06                	sw	ra,28(sp)
    13d4:	ca26                	sw	s1,20(sp)
    13d6:	842a                	mv	s0,a0
    13d8:	4781                	li	a5,0
    13da:	02000593          	li	a1,32
    13de:	02064563          	bltz	a2,1408 <prints+0x3c>
    13e2:	4592                	lw	a1,4(sp)
    13e4:	95be                	add	a1,a1,a5
    13e6:	00058583          	lb	a1,0(a1)
    13ea:	e58d                	bnez	a1,1414 <prints+0x48>
    13ec:	02c7d863          	bge	a5,a2,141c <prints+0x50>
    13f0:	02e7d463          	bge	a5,a4,1418 <prints+0x4c>
    13f4:	8e19                	sub	a2,a2,a4
    13f6:	02000513          	li	a0,32
    13fa:	0026f593          	andi	a1,a3,2
    13fe:	c02a                	sw	a0,0(sp)
    1400:	c589                	beqz	a1,140a <prints+0x3e>
    1402:	e701                	bnez	a4,140a <prints+0x3e>
    1404:	03000593          	li	a1,48
    1408:	c02e                	sw	a1,0(sp)
    140a:	8a85                	andi	a3,a3,1
    140c:	4481                	li	s1,0
    140e:	ea95                	bnez	a3,1442 <prints+0x76>
    1410:	84b2                	mv	s1,a2
    1412:	a00d                	j	1434 <prints+0x68>
    1414:	0785                	addi	a5,a5,1
    1416:	b7f1                	j	13e2 <prints+0x16>
    1418:	8e1d                	sub	a2,a2,a5
    141a:	bff1                	j	13f6 <prints+0x2a>
    141c:	4601                	li	a2,0
    141e:	bfe1                	j	13f6 <prints+0x2a>
    1420:	4582                	lw	a1,0(sp)
    1422:	8522                	mv	a0,s0
    1424:	c83a                	sw	a4,16(sp)
    1426:	c632                	sw	a2,12(sp)
    1428:	c43e                	sw	a5,8(sp)
    142a:	3fa9                	jal	1384 <printchar>
    142c:	47a2                	lw	a5,8(sp)
    142e:	4632                	lw	a2,12(sp)
    1430:	4742                	lw	a4,16(sp)
    1432:	14fd                	addi	s1,s1,-1
    1434:	fe9046e3          	bgtz	s1,1420 <prints+0x54>
    1438:	84b2                	mv	s1,a2
    143a:	00065363          	bgez	a2,1440 <prints+0x74>
    143e:	4481                	li	s1,0
    1440:	8e05                	sub	a2,a2,s1
    1442:	02e7c763          	blt	a5,a4,1470 <prints+0xa4>
    1446:	87a6                	mv	a5,s1
    1448:	4692                	lw	a3,4(sp)
    144a:	40978733          	sub	a4,a5,s1
    144e:	9736                	add	a4,a4,a3
    1450:	00070583          	lb	a1,0(a4)
    1454:	ed95                	bnez	a1,1490 <prints+0xc4>
    1456:	84b2                	mv	s1,a2
    1458:	04904463          	bgtz	s1,14a0 <prints+0xd4>
    145c:	00065363          	bgez	a2,1462 <prints+0x96>
    1460:	4601                	li	a2,0
    1462:	40f2                	lw	ra,28(sp)
    1464:	4462                	lw	s0,24(sp)
    1466:	44d2                	lw	s1,20(sp)
    1468:	00f60533          	add	a0,a2,a5
    146c:	6105                	addi	sp,sp,32
    146e:	8082                	ret
    1470:	8f1d                	sub	a4,a4,a5
    1472:	87ba                	mv	a5,a4
    1474:	03000593          	li	a1,48
    1478:	8522                	mv	a0,s0
    147a:	c832                	sw	a2,16(sp)
    147c:	c63e                	sw	a5,12(sp)
    147e:	c43a                	sw	a4,8(sp)
    1480:	3711                	jal	1384 <printchar>
    1482:	47b2                	lw	a5,12(sp)
    1484:	4722                	lw	a4,8(sp)
    1486:	4642                	lw	a2,16(sp)
    1488:	17fd                	addi	a5,a5,-1
    148a:	f7ed                	bnez	a5,1474 <prints+0xa8>
    148c:	94ba                	add	s1,s1,a4
    148e:	bf65                	j	1446 <prints+0x7a>
    1490:	8522                	mv	a0,s0
    1492:	c632                	sw	a2,12(sp)
    1494:	c43e                	sw	a5,8(sp)
    1496:	35fd                	jal	1384 <printchar>
    1498:	47a2                	lw	a5,8(sp)
    149a:	4632                	lw	a2,12(sp)
    149c:	0785                	addi	a5,a5,1
    149e:	b76d                	j	1448 <prints+0x7c>
    14a0:	4582                	lw	a1,0(sp)
    14a2:	8522                	mv	a0,s0
    14a4:	c432                	sw	a2,8(sp)
    14a6:	c23e                	sw	a5,4(sp)
    14a8:	3df1                	jal	1384 <printchar>
    14aa:	14fd                	addi	s1,s1,-1
    14ac:	4622                	lw	a2,8(sp)
    14ae:	4792                	lw	a5,4(sp)
    14b0:	b765                	j	1458 <prints+0x8c>

000014b2 <printInt>:
    14b2:	7139                	addi	sp,sp,-64
    14b4:	de06                	sw	ra,60(sp)
    14b6:	dc22                	sw	s0,56(sp)
    14b8:	da26                	sw	s1,52(sp)
    14ba:	c23e                	sw	a5,4(sp)
    14bc:	8332                	mv	t1,a2
    14be:	863a                	mv	a2,a4
    14c0:	ed89                	bnez	a1,14da <printInt+0x28>
    14c2:	4692                	lw	a3,4(sp)
    14c4:	03000793          	li	a5,48
    14c8:	4701                	li	a4,0
    14ca:	086c                	addi	a1,sp,28
    14cc:	86fc                	sh	a5,28(sp)
    14ce:	3dfd                	jal	13cc <prints>
    14d0:	50f2                	lw	ra,60(sp)
    14d2:	5462                	lw	s0,56(sp)
    14d4:	54d2                	lw	s1,52(sp)
    14d6:	6121                	addi	sp,sp,64
    14d8:	8082                	ret
    14da:	84aa                	mv	s1,a0
    14dc:	8436                	mv	s0,a3
    14de:	87ae                	mv	a5,a1
    14e0:	ca91                	beqz	a3,14f4 <printInt+0x42>
    14e2:	4729                	li	a4,10
    14e4:	4401                	li	s0,0
    14e6:	00e31763          	bne	t1,a4,14f4 <printInt+0x42>
    14ea:	0005d563          	bgez	a1,14f4 <printInt+0x42>
    14ee:	40b007b3          	neg	a5,a1
    14f2:	4405                	li	s0,1
    14f4:	4686                	lw	a3,64(sp)
    14f6:	020109a3          	sb	zero,51(sp)
    14fa:	03310713          	addi	a4,sp,51
    14fe:	fc668693          	addi	a3,a3,-58 # 40020fc6 <__global_pointer$+0x20020716>
    1502:	c436                	sw	a3,8(sp)
    1504:	859a                	mv	a1,t1
    1506:	853e                	mv	a0,a5
    1508:	ca32                	sw	a2,20(sp)
    150a:	c83a                	sw	a4,16(sp)
    150c:	c61a                	sw	t1,12(sp)
    150e:	c03e                	sw	a5,0(sp)
    1510:	c01fe0ef          	jal	ra,110 <__umodsi3>
    1514:	46a5                	li	a3,9
    1516:	4782                	lw	a5,0(sp)
    1518:	4332                	lw	t1,12(sp)
    151a:	4742                	lw	a4,16(sp)
    151c:	4652                	lw	a2,20(sp)
    151e:	00a6d463          	bge	a3,a0,1526 <printInt+0x74>
    1522:	46a2                	lw	a3,8(sp)
    1524:	9536                	add	a0,a0,a3
    1526:	03050513          	addi	a0,a0,48
    152a:	fff70693          	addi	a3,a4,-1
    152e:	fea70fa3          	sb	a0,-1(a4)
    1532:	859a                	mv	a1,t1
    1534:	853e                	mv	a0,a5
    1536:	cc32                	sw	a2,24(sp)
    1538:	ca3a                	sw	a4,20(sp)
    153a:	c81a                	sw	t1,16(sp)
    153c:	c63e                	sw	a5,12(sp)
    153e:	c036                	sw	a3,0(sp)
    1540:	ba5fe0ef          	jal	ra,e4 <__udivsi3>
    1544:	47b2                	lw	a5,12(sp)
    1546:	4342                	lw	t1,16(sp)
    1548:	4752                	lw	a4,20(sp)
    154a:	4662                	lw	a2,24(sp)
    154c:	0467f963          	bgeu	a5,t1,159e <printInt+0xec>
    1550:	cc01                	beqz	s0,1568 <printInt+0xb6>
    1552:	ca29                	beqz	a2,15a4 <printInt+0xf2>
    1554:	4792                	lw	a5,4(sp)
    1556:	8b89                	andi	a5,a5,2
    1558:	c7b1                	beqz	a5,15a4 <printInt+0xf2>
    155a:	02d00593          	li	a1,45
    155e:	8526                	mv	a0,s1
    1560:	c432                	sw	a2,8(sp)
    1562:	350d                	jal	1384 <printchar>
    1564:	4622                	lw	a2,8(sp)
    1566:	167d                	addi	a2,a2,-1
    1568:	4792                	lw	a5,4(sp)
    156a:	8b91                	andi	a5,a5,4
    156c:	c395                	beqz	a5,1590 <printInt+0xde>
    156e:	4706                	lw	a4,64(sp)
    1570:	06100793          	li	a5,97
    1574:	c432                	sw	a2,8(sp)
    1576:	03000593          	li	a1,48
    157a:	8526                	mv	a0,s1
    157c:	02f71e63          	bne	a4,a5,15b8 <printInt+0x106>
    1580:	3511                	jal	1384 <printchar>
    1582:	07800593          	li	a1,120
    1586:	8526                	mv	a0,s1
    1588:	3bf5                	jal	1384 <printchar>
    158a:	4622                	lw	a2,8(sp)
    158c:	0409                	addi	s0,s0,2
    158e:	1679                	addi	a2,a2,-2
    1590:	4716                	lw	a4,68(sp)
    1592:	4692                	lw	a3,4(sp)
    1594:	4582                	lw	a1,0(sp)
    1596:	8526                	mv	a0,s1
    1598:	3d15                	jal	13cc <prints>
    159a:	9522                	add	a0,a0,s0
    159c:	bf15                	j	14d0 <printInt+0x1e>
    159e:	87aa                	mv	a5,a0
    15a0:	4702                	lw	a4,0(sp)
    15a2:	b78d                	j	1504 <printInt+0x52>
    15a4:	4682                	lw	a3,0(sp)
    15a6:	02d00793          	li	a5,45
    15aa:	4401                	li	s0,0
    15ac:	fef68fa3          	sb	a5,-1(a3)
    15b0:	ffe70793          	addi	a5,a4,-2
    15b4:	c03e                	sw	a5,0(sp)
    15b6:	bf4d                	j	1568 <printInt+0xb6>
    15b8:	33f1                	jal	1384 <printchar>
    15ba:	05800593          	li	a1,88
    15be:	b7e1                	j	1586 <printInt+0xd4>

000015c0 <printLongLongInt>:
    15c0:	4501                	li	a0,0
    15c2:	8082                	ret

000015c4 <printDouble>:
    15c4:	4501                	li	a0,0
    15c6:	8082                	ret

000015c8 <print>:
    15c8:	fd810113          	addi	sp,sp,-40
    15cc:	d022                	sw	s0,32(sp)
    15ce:	ce26                	sw	s1,28(sp)
    15d0:	d206                	sw	ra,36(sp)
    15d2:	c42a                	sw	a0,8(sp)
    15d4:	82ae                	mv	t0,a1
    15d6:	8432                	mv	s0,a2
    15d8:	c602                	sw	zero,12(sp)
    15da:	4481                	li	s1,0
    15dc:	00028583          	lb	a1,0(t0)
    15e0:	ed89                	bnez	a1,15fa <print+0x32>
    15e2:	47a2                	lw	a5,8(sp)
    15e4:	c781                	beqz	a5,15ec <print+0x24>
    15e6:	4581                	li	a1,0
    15e8:	853e                	mv	a0,a5
    15ea:	3b69                	jal	1384 <printchar>
    15ec:	5092                	lw	ra,36(sp)
    15ee:	5402                	lw	s0,32(sp)
    15f0:	8526                	mv	a0,s1
    15f2:	44f2                	lw	s1,28(sp)
    15f4:	02810113          	addi	sp,sp,40
    15f8:	8082                	ret
    15fa:	02500793          	li	a5,37
    15fe:	00f58863          	beq	a1,a5,160e <print+0x46>
    1602:	4522                	lw	a0,8(sp)
    1604:	c816                	sw	t0,16(sp)
    1606:	0485                	addi	s1,s1,1
    1608:	3bb5                	jal	1384 <printchar>
    160a:	42c2                	lw	t0,16(sp)
    160c:	a839                	j	162a <print+0x62>
    160e:	00128783          	lb	a5,1(t0)
    1612:	00128713          	addi	a4,t0,1
    1616:	00b79c63          	bne	a5,a1,162e <print+0x66>
    161a:	4522                	lw	a0,8(sp)
    161c:	02500593          	li	a1,37
    1620:	c83a                	sw	a4,16(sp)
    1622:	338d                	jal	1384 <printchar>
    1624:	4742                	lw	a4,16(sp)
    1626:	0485                	addi	s1,s1,1
    1628:	82ba                	mv	t0,a4
    162a:	0285                	addi	t0,t0,1
    162c:	bf45                	j	15dc <print+0x14>
    162e:	dbd5                	beqz	a5,15e2 <print+0x1a>
    1630:	02b00693          	li	a3,43
    1634:	04d78963          	beq	a5,a3,1686 <print+0xbe>
    1638:	00f6c863          	blt	a3,a5,1648 <print+0x80>
    163c:	02300693          	li	a3,35
    1640:	04d78663          	beq	a5,a3,168c <print+0xc4>
    1644:	4781                	li	a5,0
    1646:	a005                	j	1666 <print+0x9e>
    1648:	02d00693          	li	a3,45
    164c:	00d78a63          	beq	a5,a3,1660 <print+0x98>
    1650:	03000693          	li	a3,48
    1654:	fed798e3          	bne	a5,a3,1644 <print+0x7c>
    1658:	00228713          	addi	a4,t0,2
    165c:	4789                	li	a5,2
    165e:	a021                	j	1666 <print+0x9e>
    1660:	00228713          	addi	a4,t0,2
    1664:	4785                	li	a5,1
    1666:	00070683          	lb	a3,0(a4)
    166a:	02b00613          	li	a2,43
    166e:	04c68363          	beq	a3,a2,16b4 <print+0xec>
    1672:	02d64163          	blt	a2,a3,1694 <print+0xcc>
    1676:	02300613          	li	a2,35
    167a:	02c68b63          	beq	a3,a2,16b0 <print+0xe8>
    167e:	82ba                	mv	t0,a4
    1680:	4501                	li	a0,0
    1682:	46a5                	li	a3,9
    1684:	a081                	j	16c4 <print+0xfc>
    1686:	00228713          	addi	a4,t0,2
    168a:	bf6d                	j	1644 <print+0x7c>
    168c:	00228713          	addi	a4,t0,2
    1690:	4791                	li	a5,4
    1692:	bfd1                	j	1666 <print+0x9e>
    1694:	02d00613          	li	a2,45
    1698:	00c68963          	beq	a3,a2,16aa <print+0xe2>
    169c:	03000613          	li	a2,48
    16a0:	fcc69fe3          	bne	a3,a2,167e <print+0xb6>
    16a4:	0027e793          	ori	a5,a5,2
    16a8:	a031                	j	16b4 <print+0xec>
    16aa:	0705                	addi	a4,a4,1
    16ac:	4785                	li	a5,1
    16ae:	bfc1                	j	167e <print+0xb6>
    16b0:	0047e793          	ori	a5,a5,4
    16b4:	0705                	addi	a4,a4,1
    16b6:	b7e1                	j	167e <print+0xb6>
    16b8:	00251613          	slli	a2,a0,0x2
    16bc:	9532                	add	a0,a0,a2
    16be:	0506                	slli	a0,a0,0x1
    16c0:	953a                	add	a0,a0,a4
    16c2:	0285                	addi	t0,t0,1
    16c4:	00028603          	lb	a2,0(t0)
    16c8:	fd060713          	addi	a4,a2,-48 # f8ffffd0 <__global_pointer$+0xd8fff720>
    16cc:	0ff77593          	andi	a1,a4,255
    16d0:	feb6f4e3          	bgeu	a3,a1,16b8 <print+0xf0>
    16d4:	02e00713          	li	a4,46
    16d8:	4699                	li	a3,6
    16da:	00e61e63          	bne	a2,a4,16f6 <print+0x12e>
    16de:	0285                	addi	t0,t0,1
    16e0:	4681                	li	a3,0
    16e2:	45a5                	li	a1,9
    16e4:	00028603          	lb	a2,0(t0)
    16e8:	fd060613          	addi	a2,a2,-48
    16ec:	0ff67713          	andi	a4,a2,255
    16f0:	02e5f563          	bgeu	a1,a4,171a <print+0x152>
    16f4:	c636                	sw	a3,12(sp)
    16f6:	00028703          	lb	a4,0(t0)
    16fa:	06a00613          	li	a2,106
    16fe:	0ac70d63          	beq	a4,a2,17b8 <print+0x1f0>
    1702:	02e64363          	blt	a2,a4,1728 <print+0x160>
    1706:	04c00613          	li	a2,76
    170a:	0ac70763          	beq	a4,a2,17b8 <print+0x1f0>
    170e:	06800613          	li	a2,104
    1712:	08c70c63          	beq	a4,a2,17aa <print+0x1e2>
    1716:	4581                	li	a1,0
    1718:	a82d                	j	1752 <print+0x18a>
    171a:	00269713          	slli	a4,a3,0x2
    171e:	96ba                	add	a3,a3,a4
    1720:	0686                	slli	a3,a3,0x1
    1722:	96b2                	add	a3,a3,a2
    1724:	0285                	addi	t0,t0,1
    1726:	bf7d                	j	16e4 <print+0x11c>
    1728:	07400613          	li	a2,116
    172c:	08c70663          	beq	a4,a2,17b8 <print+0x1f0>
    1730:	07a00613          	li	a2,122
    1734:	08c70263          	beq	a4,a2,17b8 <print+0x1f0>
    1738:	06c00613          	li	a2,108
    173c:	4581                	li	a1,0
    173e:	00c71a63          	bne	a4,a2,1752 <print+0x18a>
    1742:	00128603          	lb	a2,1(t0)
    1746:	458d                	li	a1,3
    1748:	00e61463          	bne	a2,a4,1750 <print+0x188>
    174c:	0285                	addi	t0,t0,1
    174e:	4591                	li	a1,4
    1750:	0285                	addi	t0,t0,1
    1752:	00028603          	lb	a2,0(t0)
    1756:	06000393          	li	t2,96
    175a:	06100713          	li	a4,97
    175e:	00c3c463          	blt	t2,a2,1766 <print+0x19e>
    1762:	04100713          	li	a4,65
    1766:	06700393          	li	t2,103
    176a:	06c3c463          	blt	t2,a2,17d2 <print+0x20a>
    176e:	06500393          	li	t2,101
    1772:	18765463          	bge	a2,t2,18fa <print+0x332>
    1776:	04700393          	li	t2,71
    177a:	04c3c163          	blt	t2,a2,17bc <print+0x1f4>
    177e:	04500593          	li	a1,69
    1782:	16b65c63          	bge	a2,a1,18fa <print+0x332>
    1786:	04300713          	li	a4,67
    178a:	eae610e3          	bne	a2,a4,162a <print+0x62>
    178e:	4018                	lw	a4,0(s0)
    1790:	00440393          	addi	t2,s0,4
    1794:	ca16                	sw	t0,20(sp)
    1796:	00e10c23          	sb	a4,24(sp)
    179a:	c81e                	sw	t2,16(sp)
    179c:	00010ca3          	sb	zero,25(sp)
    17a0:	4701                	li	a4,0
    17a2:	86be                	mv	a3,a5
    17a4:	862a                	mv	a2,a0
    17a6:	082c                	addi	a1,sp,24
    17a8:	a849                	j	183a <print+0x272>
    17aa:	00128603          	lb	a2,1(t0)
    17ae:	4581                	li	a1,0
    17b0:	fae611e3          	bne	a2,a4,1752 <print+0x18a>
    17b4:	0289                	addi	t0,t0,2
    17b6:	bf71                	j	1752 <print+0x18a>
    17b8:	0285                	addi	t0,t0,1
    17ba:	bfb1                	j	1716 <print+0x14e>
    17bc:	06300693          	li	a3,99
    17c0:	fcd607e3          	beq	a2,a3,178e <print+0x1c6>
    17c4:	06c6cf63          	blt	a3,a2,1842 <print+0x27a>
    17c8:	05800693          	li	a3,88
    17cc:	02d60363          	beq	a2,a3,17f2 <print+0x22a>
    17d0:	bda9                	j	162a <print+0x62>
    17d2:	07300693          	li	a3,115
    17d6:	04d60463          	beq	a2,a3,181e <print+0x256>
    17da:	02c6cb63          	blt	a3,a2,1810 <print+0x248>
    17de:	06f00693          	li	a3,111
    17e2:	0ed60363          	beq	a2,a3,18c8 <print+0x300>
    17e6:	07000693          	li	a3,112
    17ea:	0047e793          	ori	a5,a5,4
    17ee:	e2d61ee3          	bne	a2,a3,162a <print+0x62>
    17f2:	4691                	li	a3,4
    17f4:	0cd59063          	bne	a1,a3,18b4 <print+0x2ec>
    17f8:	00840393          	addi	t2,s0,8
    17fc:	400c                	lw	a1,0(s0)
    17fe:	4050                	lw	a2,4(s0)
    1800:	ca16                	sw	t0,20(sp)
    1802:	c23a                	sw	a4,4(sp)
    1804:	c03e                	sw	a5,0(sp)
    1806:	c81e                	sw	t2,16(sp)
    1808:	87aa                	mv	a5,a0
    180a:	4701                	li	a4,0
    180c:	46c1                	li	a3,16
    180e:	a881                	j	185e <print+0x296>
    1810:	07500693          	li	a3,117
    1814:	06d60963          	beq	a2,a3,1886 <print+0x2be>
    1818:	07800693          	li	a3,120
    181c:	bf45                	j	17cc <print+0x204>
    181e:	4018                	lw	a4,0(s0)
    1820:	000026b7          	lui	a3,0x2
    1824:	00440393          	addi	t2,s0,4
    1828:	c9868593          	addi	a1,a3,-872 # 1c98 <__muldi3+0x134>
    182c:	c311                	beqz	a4,1830 <print+0x268>
    182e:	85ba                	mv	a1,a4
    1830:	4732                	lw	a4,12(sp)
    1832:	ca16                	sw	t0,20(sp)
    1834:	c81e                	sw	t2,16(sp)
    1836:	86be                	mv	a3,a5
    1838:	862a                	mv	a2,a0
    183a:	4522                	lw	a0,8(sp)
    183c:	b91ff0ef          	jal	ra,13cc <prints>
    1840:	a00d                	j	1862 <print+0x29a>
    1842:	4691                	li	a3,4
    1844:	02d59463          	bne	a1,a3,186c <print+0x2a4>
    1848:	00840393          	addi	t2,s0,8
    184c:	400c                	lw	a1,0(s0)
    184e:	4050                	lw	a2,4(s0)
    1850:	ca16                	sw	t0,20(sp)
    1852:	c23a                	sw	a4,4(sp)
    1854:	c03e                	sw	a5,0(sp)
    1856:	c81e                	sw	t2,16(sp)
    1858:	87aa                	mv	a5,a0
    185a:	4705                	li	a4,1
    185c:	46a9                	li	a3,10
    185e:	4522                	lw	a0,8(sp)
    1860:	3385                	jal	15c0 <printLongLongInt>
    1862:	43c2                	lw	t2,16(sp)
    1864:	94aa                	add	s1,s1,a0
    1866:	841e                	mv	s0,t2
    1868:	42d2                	lw	t0,20(sp)
    186a:	b3c1                	j	162a <print+0x62>
    186c:	46b2                	lw	a3,12(sp)
    186e:	400c                	lw	a1,0(s0)
    1870:	c816                	sw	t0,16(sp)
    1872:	c236                	sw	a3,4(sp)
    1874:	c03a                	sw	a4,0(sp)
    1876:	0411                	addi	s0,s0,4
    1878:	872a                	mv	a4,a0
    187a:	4685                	li	a3,1
    187c:	4629                	li	a2,10
    187e:	4522                	lw	a0,8(sp)
    1880:	390d                	jal	14b2 <printInt>
    1882:	94aa                	add	s1,s1,a0
    1884:	b359                	j	160a <print+0x42>
    1886:	4691                	li	a3,4
    1888:	00d59d63          	bne	a1,a3,18a2 <print+0x2da>
    188c:	00840393          	addi	t2,s0,8
    1890:	400c                	lw	a1,0(s0)
    1892:	4050                	lw	a2,4(s0)
    1894:	ca16                	sw	t0,20(sp)
    1896:	c23a                	sw	a4,4(sp)
    1898:	c03e                	sw	a5,0(sp)
    189a:	c81e                	sw	t2,16(sp)
    189c:	87aa                	mv	a5,a0
    189e:	4701                	li	a4,0
    18a0:	bf75                	j	185c <print+0x294>
    18a2:	46b2                	lw	a3,12(sp)
    18a4:	400c                	lw	a1,0(s0)
    18a6:	c816                	sw	t0,16(sp)
    18a8:	c236                	sw	a3,4(sp)
    18aa:	c03a                	sw	a4,0(sp)
    18ac:	0411                	addi	s0,s0,4
    18ae:	872a                	mv	a4,a0
    18b0:	4681                	li	a3,0
    18b2:	b7e9                	j	187c <print+0x2b4>
    18b4:	46b2                	lw	a3,12(sp)
    18b6:	c816                	sw	t0,16(sp)
    18b8:	400c                	lw	a1,0(s0)
    18ba:	4641                	li	a2,16
    18bc:	c236                	sw	a3,4(sp)
    18be:	c03a                	sw	a4,0(sp)
    18c0:	0411                	addi	s0,s0,4
    18c2:	872a                	mv	a4,a0
    18c4:	4681                	li	a3,0
    18c6:	bf65                	j	187e <print+0x2b6>
    18c8:	4691                	li	a3,4
    18ca:	00d59e63          	bne	a1,a3,18e6 <print+0x31e>
    18ce:	00840393          	addi	t2,s0,8
    18d2:	400c                	lw	a1,0(s0)
    18d4:	4050                	lw	a2,4(s0)
    18d6:	ca16                	sw	t0,20(sp)
    18d8:	c23a                	sw	a4,4(sp)
    18da:	c03e                	sw	a5,0(sp)
    18dc:	c81e                	sw	t2,16(sp)
    18de:	87aa                	mv	a5,a0
    18e0:	4701                	li	a4,0
    18e2:	46a1                	li	a3,8
    18e4:	bfad                	j	185e <print+0x296>
    18e6:	46b2                	lw	a3,12(sp)
    18e8:	400c                	lw	a1,0(s0)
    18ea:	c816                	sw	t0,16(sp)
    18ec:	c236                	sw	a3,4(sp)
    18ee:	c03a                	sw	a4,0(sp)
    18f0:	0411                	addi	s0,s0,4
    18f2:	872a                	mv	a4,a0
    18f4:	4681                	li	a3,0
    18f6:	4621                	li	a2,8
    18f8:	b759                	j	187e <print+0x2b6>
    18fa:	400c                	lw	a1,0(s0)
    18fc:	00840613          	addi	a2,s0,8
    1900:	4040                	lw	s0,4(s0)
    1902:	c23a                	sw	a4,4(sp)
    1904:	872a                	mv	a4,a0
    1906:	4522                	lw	a0,8(sp)
    1908:	c832                	sw	a2,16(sp)
    190a:	c03e                	sw	a5,0(sp)
    190c:	8622                	mv	a2,s0
    190e:	87b6                	mv	a5,a3
    1910:	46a9                	li	a3,10
    1912:	ca16                	sw	t0,20(sp)
    1914:	3945                	jal	15c4 <printDouble>
    1916:	94aa                	add	s1,s1,a0
    1918:	4442                	lw	s0,16(sp)
    191a:	b7b9                	j	1868 <print+0x2a0>

0000191c <printf>:
    191c:	fdc10113          	addi	sp,sp,-36
    1920:	c82e                	sw	a1,16(sp)
    1922:	ca32                	sw	a2,20(sp)
    1924:	85aa                	mv	a1,a0
    1926:	0810                	addi	a2,sp,16
    1928:	4501                	li	a0,0
    192a:	c606                	sw	ra,12(sp)
    192c:	cc36                	sw	a3,24(sp)
    192e:	ce3a                	sw	a4,28(sp)
    1930:	d03e                	sw	a5,32(sp)
    1932:	c032                	sw	a2,0(sp)
    1934:	3951                	jal	15c8 <print>
    1936:	40b2                	lw	ra,12(sp)
    1938:	02410113          	addi	sp,sp,36
    193c:	8082                	ret

0000193e <puts>:
    193e:	1141                	addi	sp,sp,-16
    1940:	c422                	sw	s0,8(sp)
    1942:	c226                	sw	s1,4(sp)
    1944:	c606                	sw	ra,12(sp)
    1946:	211c                	lbu	a5,0(a0)
    1948:	84aa                	mv	s1,a0
    194a:	4401                	li	s0,0
    194c:	81dc                	sb	a5,3(sp)
    194e:	00310783          	lb	a5,3(sp)
    1952:	0405                	addi	s0,s0,1
    1954:	ef99                	bnez	a5,1972 <puts+0x34>
    1956:	47a9                	li	a5,10
    1958:	00310593          	addi	a1,sp,3
    195c:	4605                	li	a2,1
    195e:	4501                	li	a0,0
    1960:	81dc                	sb	a5,3(sp)
    1962:	9adff0ef          	jal	ra,130e <_write>
    1966:	8522                	mv	a0,s0
    1968:	40b2                	lw	ra,12(sp)
    196a:	4422                	lw	s0,8(sp)
    196c:	4492                	lw	s1,4(sp)
    196e:	0141                	addi	sp,sp,16
    1970:	8082                	ret
    1972:	4605                	li	a2,1
    1974:	00310593          	addi	a1,sp,3
    1978:	4501                	li	a0,0
    197a:	995ff0ef          	jal	ra,130e <_write>
    197e:	008487b3          	add	a5,s1,s0
    1982:	239c                	lbu	a5,0(a5)
    1984:	81dc                	sb	a5,3(sp)
    1986:	b7e1                	j	194e <puts+0x10>

00001988 <srand>:
    1988:	1151                	addi	sp,sp,-12
    198a:	1fffe797          	auipc	a5,0x1fffe
    198e:	72678793          	addi	a5,a5,1830 # 200000b0 <_impure_ptr>
    1992:	c222                	sw	s0,4(sp)
    1994:	4380                	lw	s0,0(a5)
    1996:	c026                	sw	s1,0(sp)
    1998:	c406                	sw	ra,8(sp)
    199a:	5c1c                	lw	a5,56(s0)
    199c:	84aa                	mv	s1,a0
    199e:	eb8d                	bnez	a5,19d0 <srand+0x48>
    19a0:	4561                	li	a0,24
    19a2:	284d                	jal	1a54 <malloc>
    19a4:	abcd37b7          	lui	a5,0xabcd3
    19a8:	dc08                	sw	a0,56(s0)
    19aa:	30e78793          	addi	a5,a5,782 # abcd330e <__global_pointer$+0x8bcd2a5e>
    19ae:	c11c                	sw	a5,0(a0)
    19b0:	e66d17b7          	lui	a5,0xe66d1
    19b4:	23478793          	addi	a5,a5,564 # e66d1234 <__global_pointer$+0xc66d0984>
    19b8:	c15c                	sw	a5,4(a0)
    19ba:	0005e7b7          	lui	a5,0x5e
    19be:	eec78793          	addi	a5,a5,-276 # 5deec <_data_lma+0x5c244>
    19c2:	c51c                	sw	a5,8(a0)
    19c4:	47ad                	li	a5,11
    19c6:	a55e                	sh	a5,12(a0)
    19c8:	4705                	li	a4,1
    19ca:	4781                	li	a5,0
    19cc:	c918                	sw	a4,16(a0)
    19ce:	c95c                	sw	a5,20(a0)
    19d0:	5c1c                	lw	a5,56(s0)
    19d2:	40a2                	lw	ra,8(sp)
    19d4:	4412                	lw	s0,4(sp)
    19d6:	cb84                	sw	s1,16(a5)
    19d8:	0007aa23          	sw	zero,20(a5)
    19dc:	4482                	lw	s1,0(sp)
    19de:	0131                	addi	sp,sp,12
    19e0:	8082                	ret

000019e2 <rand>:
    19e2:	1151                	addi	sp,sp,-12
    19e4:	1fffe797          	auipc	a5,0x1fffe
    19e8:	6cc78793          	addi	a5,a5,1740 # 200000b0 <_impure_ptr>
    19ec:	c222                	sw	s0,4(sp)
    19ee:	4380                	lw	s0,0(a5)
    19f0:	c406                	sw	ra,8(sp)
    19f2:	5c1c                	lw	a5,56(s0)
    19f4:	eb8d                	bnez	a5,1a26 <rand+0x44>
    19f6:	4561                	li	a0,24
    19f8:	28b1                	jal	1a54 <malloc>
    19fa:	abcd37b7          	lui	a5,0xabcd3
    19fe:	dc08                	sw	a0,56(s0)
    1a00:	30e78793          	addi	a5,a5,782 # abcd330e <__global_pointer$+0x8bcd2a5e>
    1a04:	c11c                	sw	a5,0(a0)
    1a06:	e66d17b7          	lui	a5,0xe66d1
    1a0a:	23478793          	addi	a5,a5,564 # e66d1234 <__global_pointer$+0xc66d0984>
    1a0e:	c15c                	sw	a5,4(a0)
    1a10:	0005e7b7          	lui	a5,0x5e
    1a14:	eec78793          	addi	a5,a5,-276 # 5deec <_data_lma+0x5c244>
    1a18:	c51c                	sw	a5,8(a0)
    1a1a:	47ad                	li	a5,11
    1a1c:	a55e                	sh	a5,12(a0)
    1a1e:	4705                	li	a4,1
    1a20:	4781                	li	a5,0
    1a22:	c918                	sw	a4,16(a0)
    1a24:	c95c                	sw	a5,20(a0)
    1a26:	5c00                	lw	s0,56(s0)
    1a28:	00000797          	auipc	a5,0x0
    1a2c:	27878793          	addi	a5,a5,632 # 1ca0 <__muldi3+0x13c>
    1a30:	4390                	lw	a2,0(a5)
    1a32:	4808                	lw	a0,16(s0)
    1a34:	484c                	lw	a1,20(s0)
    1a36:	43d4                	lw	a3,4(a5)
    1a38:	2235                	jal	1b64 <__muldi3>
    1a3a:	00150793          	addi	a5,a0,1
    1a3e:	00a7b533          	sltu	a0,a5,a0
    1a42:	952e                	add	a0,a0,a1
    1a44:	c848                	sw	a0,20(s0)
    1a46:	c81c                	sw	a5,16(s0)
    1a48:	40a2                	lw	ra,8(sp)
    1a4a:	4412                	lw	s0,4(sp)
    1a4c:	0506                	slli	a0,a0,0x1
    1a4e:	8105                	srli	a0,a0,0x1
    1a50:	0131                	addi	sp,sp,12
    1a52:	8082                	ret

00001a54 <malloc>:
    1a54:	1fffe797          	auipc	a5,0x1fffe
    1a58:	65c78793          	addi	a5,a5,1628 # 200000b0 <_impure_ptr>
    1a5c:	85aa                	mv	a1,a0
    1a5e:	4388                	lw	a0,0(a5)
    1a60:	a009                	j	1a62 <_malloc_r>

00001a62 <_malloc_r>:
    1a62:	1141                	addi	sp,sp,-16
    1a64:	c226                	sw	s1,4(sp)
    1a66:	00358493          	addi	s1,a1,3
    1a6a:	98f1                	andi	s1,s1,-4
    1a6c:	c606                	sw	ra,12(sp)
    1a6e:	c422                	sw	s0,8(sp)
    1a70:	04a1                	addi	s1,s1,8
    1a72:	47b1                	li	a5,12
    1a74:	04f4f563          	bgeu	s1,a5,1abe <_malloc_r+0x5c>
    1a78:	44b1                	li	s1,12
    1a7a:	04b4e463          	bltu	s1,a1,1ac2 <_malloc_r+0x60>
    1a7e:	c02a                	sw	a0,0(sp)
    1a80:	20c5                	jal	1b60 <__malloc_lock>
    1a82:	80818713          	addi	a4,gp,-2040 # 200000b8 <_edata>
    1a86:	4314                	lw	a3,0(a4)
    1a88:	4782                	lw	a5,0(sp)
    1a8a:	8436                	mv	s0,a3
    1a8c:	e039                	bnez	s0,1ad2 <_malloc_r+0x70>
    1a8e:	80c18713          	addi	a4,gp,-2036 # 200000bc <__malloc_sbrk_start>
    1a92:	4318                	lw	a4,0(a4)
    1a94:	eb01                	bnez	a4,1aa4 <_malloc_r+0x42>
    1a96:	853e                	mv	a0,a5
    1a98:	4581                	li	a1,0
    1a9a:	c03e                	sw	a5,0(sp)
    1a9c:	2869                	jal	1b36 <_sbrk_r>
    1a9e:	80a1a623          	sw	a0,-2036(gp) # 200000bc <__malloc_sbrk_start>
    1aa2:	4782                	lw	a5,0(sp)
    1aa4:	853e                	mv	a0,a5
    1aa6:	85a6                	mv	a1,s1
    1aa8:	c03e                	sw	a5,0(sp)
    1aaa:	2071                	jal	1b36 <_sbrk_r>
    1aac:	577d                	li	a4,-1
    1aae:	4782                	lw	a5,0(sp)
    1ab0:	06e51463          	bne	a0,a4,1b18 <_malloc_r+0xb6>
    1ab4:	4731                	li	a4,12
    1ab6:	c398                	sw	a4,0(a5)
    1ab8:	853e                	mv	a0,a5
    1aba:	2065                	jal	1b62 <__malloc_unlock>
    1abc:	a029                	j	1ac6 <_malloc_r+0x64>
    1abe:	fa04dee3          	bgez	s1,1a7a <_malloc_r+0x18>
    1ac2:	47b1                	li	a5,12
    1ac4:	c11c                	sw	a5,0(a0)
    1ac6:	4501                	li	a0,0
    1ac8:	40b2                	lw	ra,12(sp)
    1aca:	4422                	lw	s0,8(sp)
    1acc:	4492                	lw	s1,4(sp)
    1ace:	0141                	addi	sp,sp,16
    1ad0:	8082                	ret
    1ad2:	4018                	lw	a4,0(s0)
    1ad4:	8f05                	sub	a4,a4,s1
    1ad6:	02074e63          	bltz	a4,1b12 <_malloc_r+0xb0>
    1ada:	462d                	li	a2,11
    1adc:	00e67663          	bgeu	a2,a4,1ae8 <_malloc_r+0x86>
    1ae0:	c018                	sw	a4,0(s0)
    1ae2:	943a                	add	s0,s0,a4
    1ae4:	c004                	sw	s1,0(s0)
    1ae6:	a031                	j	1af2 <_malloc_r+0x90>
    1ae8:	4058                	lw	a4,4(s0)
    1aea:	02869263          	bne	a3,s0,1b0e <_malloc_r+0xac>
    1aee:	80e1a423          	sw	a4,-2040(gp) # 200000b8 <_edata>
    1af2:	853e                	mv	a0,a5
    1af4:	20bd                	jal	1b62 <__malloc_unlock>
    1af6:	00b40513          	addi	a0,s0,11
    1afa:	00440713          	addi	a4,s0,4
    1afe:	9961                	andi	a0,a0,-8
    1b00:	40e507b3          	sub	a5,a0,a4
    1b04:	d3f1                	beqz	a5,1ac8 <_malloc_r+0x66>
    1b06:	943e                	add	s0,s0,a5
    1b08:	8f09                	sub	a4,a4,a0
    1b0a:	c018                	sw	a4,0(s0)
    1b0c:	bf75                	j	1ac8 <_malloc_r+0x66>
    1b0e:	c2d8                	sw	a4,4(a3)
    1b10:	b7cd                	j	1af2 <_malloc_r+0x90>
    1b12:	86a2                	mv	a3,s0
    1b14:	4040                	lw	s0,4(s0)
    1b16:	bf9d                	j	1a8c <_malloc_r+0x2a>
    1b18:	00350413          	addi	s0,a0,3
    1b1c:	9871                	andi	s0,s0,-4
    1b1e:	fc8503e3          	beq	a0,s0,1ae4 <_malloc_r+0x82>
    1b22:	40a405b3          	sub	a1,s0,a0
    1b26:	853e                	mv	a0,a5
    1b28:	c03e                	sw	a5,0(sp)
    1b2a:	2031                	jal	1b36 <_sbrk_r>
    1b2c:	577d                	li	a4,-1
    1b2e:	4782                	lw	a5,0(sp)
    1b30:	fae51ae3          	bne	a0,a4,1ae4 <_malloc_r+0x82>
    1b34:	b741                	j	1ab4 <_malloc_r+0x52>

00001b36 <_sbrk_r>:
    1b36:	1151                	addi	sp,sp,-12
    1b38:	c222                	sw	s0,4(sp)
    1b3a:	842a                	mv	s0,a0
    1b3c:	852e                	mv	a0,a1
    1b3e:	8801a423          	sw	zero,-1912(gp) # 20000138 <errno>
    1b42:	c406                	sw	ra,8(sp)
    1b44:	81bff0ef          	jal	ra,135e <_sbrk>
    1b48:	57fd                	li	a5,-1
    1b4a:	00f51763          	bne	a0,a5,1b58 <_sbrk_r+0x22>
    1b4e:	88818793          	addi	a5,gp,-1912 # 20000138 <errno>
    1b52:	439c                	lw	a5,0(a5)
    1b54:	c391                	beqz	a5,1b58 <_sbrk_r+0x22>
    1b56:	c01c                	sw	a5,0(s0)
    1b58:	40a2                	lw	ra,8(sp)
    1b5a:	4412                	lw	s0,4(sp)
    1b5c:	0131                	addi	sp,sp,12
    1b5e:	8082                	ret

00001b60 <__malloc_lock>:
    1b60:	8082                	ret

00001b62 <__malloc_unlock>:
    1b62:	8082                	ret

00001b64 <__muldi3>:
    1b64:	1121                	addi	sp,sp,-24
    1b66:	c22a                	sw	a0,4(sp)
    1b68:	c036                	sw	a3,0(sp)
    1b6a:	ca06                	sw	ra,20(sp)
    1b6c:	86aa                	mv	a3,a0
    1b6e:	c822                	sw	s0,16(sp)
    1b70:	c626                	sw	s1,12(sp)
    1b72:	8732                	mv	a4,a2
    1b74:	c432                	sw	a2,8(sp)
    1b76:	4781                	li	a5,0
    1b78:	4501                	li	a0,0
    1b7a:	4301                	li	t1,0
    1b7c:	00668633          	add	a2,a3,t1
    1b80:	00177393          	andi	t2,a4,1
    1b84:	00f50433          	add	s0,a0,a5
    1b88:	01f6d293          	srli	t0,a3,0x1f
    1b8c:	8305                	srli	a4,a4,0x1
    1b8e:	006634b3          	sltu	s1,a2,t1
    1b92:	0786                	slli	a5,a5,0x1
    1b94:	00038563          	beqz	t2,1b9e <__muldi3+0x3a>
    1b98:	00848533          	add	a0,s1,s0
    1b9c:	8332                	mv	t1,a2
    1b9e:	0686                	slli	a3,a3,0x1
    1ba0:	0057e7b3          	or	a5,a5,t0
    1ba4:	ff61                	bnez	a4,1b7c <__muldi3+0x18>
    1ba6:	87aa                	mv	a5,a0
    1ba8:	c589                	beqz	a1,1bb2 <__muldi3+0x4e>
    1baa:	4522                	lw	a0,8(sp)
    1bac:	d18fe0ef          	jal	ra,c4 <__mulsi3>
    1bb0:	97aa                	add	a5,a5,a0
    1bb2:	4702                	lw	a4,0(sp)
    1bb4:	c711                	beqz	a4,1bc0 <__muldi3+0x5c>
    1bb6:	4512                	lw	a0,4(sp)
    1bb8:	85ba                	mv	a1,a4
    1bba:	d0afe0ef          	jal	ra,c4 <__mulsi3>
    1bbe:	97aa                	add	a5,a5,a0
    1bc0:	40d2                	lw	ra,20(sp)
    1bc2:	4442                	lw	s0,16(sp)
    1bc4:	44b2                	lw	s1,12(sp)
    1bc6:	851a                	mv	a0,t1
    1bc8:	85be                	mv	a1,a5
    1bca:	0161                	addi	sp,sp,24
    1bcc:	8082                	ret
    1bce:	0000                	unimp
    1bd0:	6956                	flw	fs2,84(sp)
    1bd2:	7262                	flw	ft4,56(sp)
    1bd4:	7461                	lui	s0,0xffff8
    1bd6:	6f69                	lui	t5,0x1a
    1bd8:	5f6e                	lw	t5,248(sp)
    1bda:	5845                	li	a6,-15
    1bdc:	4954                	lw	a3,20(a0)
    1bde:	4c5f 6e69 7365      	0x73656e694c5f
    1be4:	5720                	lw	s0,104(a4)
    1be6:	6b61                	lui	s6,0x18
    1be8:	5f65                	li	t5,-7
    1bea:	7075                	c.lui	zero,0xffffd
    1bec:	000d                	c.nop	3
    1bee:	0000                	unimp
    1bf0:	6148                	flw	fa0,4(a0)
    1bf2:	6c6c                	flw	fa1,92(s0)
    1bf4:	455f 5458 5f49      	0x5f495458455f
    1bfa:	694c                	flw	fa1,20(a0)
    1bfc:	656e                	flw	fa0,216(sp)
    1bfe:	61572073          	csrs	0x615,a4
    1c02:	755f656b          	0x755f656b
    1c06:	0d70                	addi	a2,sp,668
    1c08:	0000                	unimp
    1c0a:	0000                	unimp
    1c0c:	72616843          	fmadd.d	fa6,ft2,ft6,fa4,unknown
    1c10:	455f6567          	0x455f6567
    1c14:	5458                	lw	a4,44(s0)
    1c16:	5f49                	li	t5,-14
    1c18:	694c                	flw	fa1,20(a0)
    1c1a:	656e                	flw	fa0,216(sp)
    1c1c:	61572073          	csrs	0x615,a4
    1c20:	755f656b          	0x755f656b
    1c24:	0d70                	addi	a2,sp,668
    1c26:	0000                	unimp
    1c28:	7542                	flw	fa0,48(sp)
    1c2a:	7474                	flw	fa3,108(s0)
    1c2c:	49206e6f          	jal	t3,80be <_data_lma+0x6416>
    1c30:	3a44                	lbu	s1,21(a2)
    1c32:	2520                	lbu	s0,10(a0)
    1c34:	2064                	lbu	s1,6(s0)
    1c36:	63696c43          	fmadd.d	fs8,fs2,fs6,fa2,unknown
    1c3a:	2164656b          	0x2164656b
    1c3e:	000a                	c.slli	zero,0x2
    1c40:	74737953          	0x74737953
    1c44:	6d65                	lui	s10,0x19
    1c46:	3a6b6c43          	fmadd.d	fs8,fs6,ft6,ft7,unknown
    1c4a:	6425                	lui	s0,0x9
    1c4c:	0a0d                	addi	s4,s4,3
    1c4e:	0000                	unimp
    1c50:	70696843          	fmadd.s	fa6,fs2,ft6,fa4,unknown
    1c54:	4449                	li	s0,18
    1c56:	253a                	lhu	a4,10(a0)
    1c58:	3830                	lbu	a2,19(s0)
    1c5a:	0d78                	addi	a4,sp,668
    1c5c:	000a                	c.slli	zero,0x2
    1c5e:	0000                	unimp
    1c60:	6e45                	lui	t3,0x11
    1c62:	6574                	flw	fa3,76(a0)
    1c64:	7372                	flw	ft6,60(sp)
    1c66:	5320                	lw	s0,96(a4)
    1c68:	656c                	flw	fa1,76(a0)
    1c6a:	7065                	c.lui	zero,0xffff9
    1c6c:	000d                	c.nop	3
    1c6e:	0000                	unimp
    1c70:	6172                	flw	ft2,28(sp)
    1c72:	646e                	flw	fs0,216(sp)
    1c74:	2928                	lbu	a0,18(a0)
    1c76:	4920                	lw	s0,80(a0)
    1c78:	3a44                	lbu	s1,21(a2)
    1c7a:	2520                	lbu	s0,10(a0)
    1c7c:	2064                	lbu	s1,6(s0)
    1c7e:	000a                	c.slli	zero,0x2
    1c80:	0e6e                	slli	t3,t3,0x1b
    1c82:	0000                	unimp
    1c84:	0ea6                	slli	t4,t4,0x9
    1c86:	0000                	unimp
    1c88:	0f00                	addi	s0,sp,912
    1c8a:	0000                	unimp
    1c8c:	0f88                	addi	a0,sp,976
    1c8e:	0000                	unimp
    1c90:	0fb2                	slli	t6,t6,0xc
    1c92:	0000                	unimp
    1c94:	0fd0                	addi	a2,sp,980
    1c96:	0000                	unimp
    1c98:	6e28                	flw	fa0,88(a2)
    1c9a:	6c75                	lui	s8,0x1d
    1c9c:	296c                	lbu	a1,22(a0)
    1c9e:	0000                	unimp
    1ca0:	7f2d                	lui	t5,0xfffeb
    1ca2:	4c95                	li	s9,5
    1ca4:	f42d                	bnez	s0,1c0e <__muldi3+0xaa>
    1ca6:	5851                	li	a6,-12
